 lengnan

 Timestamp is 508610fc (Tue Oct 23 11:37:32 2012)

 Preferred load address is 00400000

 Start         Length     Name                   Class
 0001:00000000 00010000H .textbss                DATA
 0002:00000000 0000dde8H .text                   CODE
 0002:0000ddf0 00001251H .text$x                 CODE
 0002:0000f050 000015d3H .text$yc                CODE
 0002:00010630 00001089H .text$yd                CODE
 0003:00000000 00000104H .CRT$XCA                DATA
 0003:00000104 00000104H .CRT$XCAA               DATA
 0003:00000208 0000010eH .CRT$XCC                DATA
 0003:00000318 0000018aH .CRT$XCL                DATA
 0003:000004a4 0000010eH .CRT$XCU                DATA
 0003:000005b4 00000104H .CRT$XCZ                DATA
 0003:000006b8 00000104H .CRT$XIA                DATA
 0003:000007bc 00000104H .CRT$XIAA               DATA
 0003:000008c0 00000104H .CRT$XIY                DATA
 0003:000009c4 00000104H .CRT$XIZ                DATA
 0003:00000ad0 00002932H .rdata                  DATA
 0003:00003404 00000170H .rdata$debug            DATA
 0003:00003574 00000670H .rdata$r                DATA
 0003:00003be4 00000104H .rtc$IAA                DATA
 0003:00003ce8 00000118H .rtc$IMZ                DATA
 0003:00003e00 00000104H .rtc$IZZ                DATA
 0003:00003f04 00000104H .rtc$TAA                DATA
 0003:00004008 00000118H .rtc$TMZ                DATA
 0003:00004120 00000104H .rtc$TZZ                DATA
 0003:00004228 0000046eH .xdata$x                DATA
 0003:00004698 00000104H ATL$__a                 DATA
 0003:0000479c 00000104H ATL$__z                 DATA
 0003:000048a0 00000000H .edata                  DATA
 0004:00000000 000003ddH .data                   DATA
 0004:000003e0 00000634H .bss                    DATA
 0005:00000000 000000c8H .idata$2                DATA
 0005:000000c8 00000014H .idata$3                DATA
 0005:000000dc 00000938H .idata$4                DATA
 0005:00000a14 00000938H .idata$5                DATA
 0005:0000134c 00000a7aH .idata$6                DATA
 0006:00000000 000009d9H .rsrc$01                DATA
 0006:000009e0 000089d6H .rsrc$02                DATA

  Address         Publics by Value              Rva+Base       Lib:Object

 0000:00000000       ___safe_se_handler_count   00000000     <absolute>
 0000:00000000       __except_list              00000000     <absolute>
 0000:00000000       ___safe_se_handler_table   00000000     <absolute>
 0000:00009876       __fltused                  00009876     <absolute>
 0000:00009876       __ldused                   00009876     <absolute>
 0000:00000000       ___ImageBase               00400000     <linker-defined>
 0001:00000000       __enc$textbss$begin        00401000     <linker-defined>
 0001:00010000       __enc$textbss$end          00411000     <linker-defined>
 0002:00001d10       ?GetMessageMap@ClengnanApp@@MBEPBUAFX_MSGMAP@@XZ 00412d10 f   lengnan.obj
 0002:00001d60       ?GetThisMessageMap@ClengnanApp@@KGPBUAFX_MSGMAP@@XZ 00412d60 f   lengnan.obj
 0002:00001da0       ??0ClengnanApp@@QAE@XZ     00412da0 f   lengnan.obj
 0002:00001e00       ??_EClengnanApp@@UAEPAXI@Z 00412e00 f i lengnan.obj
 0002:00001e00       ??_GClengnanApp@@UAEPAXI@Z 00412e00 f i lengnan.obj
 0002:00001e70       ??1ClengnanApp@@UAE@XZ     00412e70 f i lengnan.obj
 0002:00001ec0       ?InitInstance@ClengnanApp@@UAEHXZ 00412ec0 f   lengnan.obj
 0002:00002170       ??0CAboutDlg@@QAE@XZ       00413170 f   lengnan.obj
 0002:000021e0       ??_ECAboutDlg@@UAEPAXI@Z   004131e0 f i lengnan.obj
 0002:000021e0       ??_GCAboutDlg@@UAEPAXI@Z   004131e0 f i lengnan.obj
 0002:00002250       ??1CAboutDlg@@UAE@XZ       00413250 f i lengnan.obj
 0002:000022a0       ?DoDataExchange@CAboutDlg@@MAEXPAVCDataExchange@@@Z 004132a0 f   lengnan.obj
 0002:00002300       ?GetMessageMap@CAboutDlg@@MBEPBUAFX_MSGMAP@@XZ 00413300 f   lengnan.obj
 0002:00002350       ?GetThisMessageMap@CAboutDlg@@KGPBUAFX_MSGMAP@@XZ 00413350 f   lengnan.obj
 0002:00002390       ?OnAppAbout@ClengnanApp@@QAEXXZ 00413390 f   lengnan.obj
 0002:00002490       ?CreateObject@ClengnanDoc@@SGPAVCObject@@XZ 00413490 f   lengnanDoc.obj
 0002:00002580       ?_GetBaseClass@ClengnanDoc@@KGPAUCRuntimeClass@@XZ 00413580 f   lengnanDoc.obj
 0002:000025d0       ?GetThisClass@ClengnanDoc@@SGPAUCRuntimeClass@@XZ 004135d0 f   lengnanDoc.obj
 0002:00002610       ?GetRuntimeClass@ClengnanDoc@@UBEPAUCRuntimeClass@@XZ 00413610 f   lengnanDoc.obj
 0002:00002650       ?GetMessageMap@ClengnanDoc@@MBEPBUAFX_MSGMAP@@XZ 00413650 f   lengnanDoc.obj
 0002:000026a0       ?GetThisMessageMap@ClengnanDoc@@KGPBUAFX_MSGMAP@@XZ 004136a0 f   lengnanDoc.obj
 0002:000026e0       ??0ClengnanDoc@@IAE@XZ     004136e0 f   lengnanDoc.obj
 0002:00002740       ??_GClengnanDoc@@UAEPAXI@Z 00413740 f i lengnanDoc.obj
 0002:00002740       ??_EClengnanDoc@@UAEPAXI@Z 00413740 f i lengnanDoc.obj
 0002:000027b0       ??1ClengnanDoc@@UAE@XZ     004137b0 f   lengnanDoc.obj
 0002:00002810       ?OnNewDocument@ClengnanDoc@@UAEHXZ 00413810 f   lengnanDoc.obj
 0002:00002870       ?Serialize@ClengnanDoc@@UAEXAAVCArchive@@@Z 00413870 f   lengnanDoc.obj
 0002:000028d0       ?AssertValid@ClengnanDoc@@UBEXXZ 004138d0 f   lengnanDoc.obj
 0002:00002920       ?Dump@ClengnanDoc@@UBEXAAVCDumpContext@@@Z 00413920 f   lengnanDoc.obj
 0002:00002980       ?CreateObject@ClengnanView@@SGPAVCObject@@XZ 00413980 f   lengnanView.obj
 0002:00002a70       ?_GetBaseClass@ClengnanView@@KGPAUCRuntimeClass@@XZ 00413a70 f   lengnanView.obj
 0002:00002ac0       ?GetThisClass@ClengnanView@@SGPAUCRuntimeClass@@XZ 00413ac0 f   lengnanView.obj
 0002:00002b00       ?GetRuntimeClass@ClengnanView@@UBEPAUCRuntimeClass@@XZ 00413b00 f   lengnanView.obj
 0002:00002b40       ?GetMessageMap@ClengnanView@@MBEPBUAFX_MSGMAP@@XZ 00413b40 f   lengnanView.obj
 0002:00002b90       ?GetThisMessageMap@ClengnanView@@KGPBUAFX_MSGMAP@@XZ 00413b90 f   lengnanView.obj
 0002:00002bd0       ??0ClengnanView@@IAE@XZ    00413bd0 f   lengnanView.obj
 0002:00002c30       ??_EClengnanView@@UAEPAXI@Z 00413c30 f i lengnanView.obj
 0002:00002c30       ??_GClengnanView@@UAEPAXI@Z 00413c30 f i lengnanView.obj
 0002:00002ca0       ??1ClengnanView@@UAE@XZ    00413ca0 f   lengnanView.obj
 0002:00002d00       ?PreCreateWindow@ClengnanView@@UAEHAAUtagCREATESTRUCTW@@@Z 00413d00 f   lengnanView.obj
 0002:00002d70       ?OnDraw@ClengnanView@@UAEXPAVCDC@@@Z 00413d70 f   lengnanView.obj
 0002:00002e50       ?OnPreparePrinting@ClengnanView@@MAEHPAUCPrintInfo@@@Z 00413e50 f   lengnanView.obj
 0002:00002eb0       ?OnBeginPrinting@ClengnanView@@MAEXPAVCDC@@PAUCPrintInfo@@@Z 00413eb0 f   lengnanView.obj
 0002:00002ef0       ?OnEndPrinting@ClengnanView@@MAEXPAVCDC@@PAUCPrintInfo@@@Z 00413ef0 f   lengnanView.obj
 0002:00002f30       ?AssertValid@ClengnanView@@UBEXXZ 00413f30 f   lengnanView.obj
 0002:00002f80       ?Dump@ClengnanView@@UBEXAAVCDumpContext@@@Z 00413f80 f   lengnanView.obj
 0002:00002fe0       ?GetDocument@ClengnanView@@QBEPAVClengnanDoc@@XZ 00413fe0 f   lengnanView.obj
 0002:00003070       ?OnCreate@ClengnanView@@QAEHPAUtagCREATESTRUCTW@@@Z 00414070 f   lengnanView.obj
 0002:000030f0       ?OnDestroy@ClengnanView@@QAEXXZ 004140f0 f   lengnanView.obj
 0002:00003240       ?OnSize@ClengnanView@@QAEXIHH@Z 00414240 f   lengnanView.obj
 0002:00003390       ?OnEraseBkgnd@ClengnanView@@QAEHPAVCDC@@@Z 00414390 f   lengnanView.obj
 0002:000033f0       ?InitializeOpenGL@ClengnanView@@QAEHXZ 004143f0 f   lengnanView.obj
 0002:000035e0       ?SetupPixelFormat@ClengnanView@@QAEHXZ 004145e0 f   lengnanView.obj
 0002:000036a0       ?RenderScene@ClengnanView@@QAEXXZ 004146a0 f   lengnanView.obj
 0002:000036e0       ?CreateObject@CMainFrame@@SGPAVCObject@@XZ 004146e0 f   MainFrm.obj
 0002:000037d0       ?_GetBaseClass@CMainFrame@@KGPAUCRuntimeClass@@XZ 004147d0 f   MainFrm.obj
 0002:00003820       ?GetThisClass@CMainFrame@@SGPAUCRuntimeClass@@XZ 00414820 f   MainFrm.obj
 0002:00003860       ?GetRuntimeClass@CMainFrame@@UBEPAUCRuntimeClass@@XZ 00414860 f   MainFrm.obj
 0002:000038a0       ?GetMessageMap@CMainFrame@@MBEPBUAFX_MSGMAP@@XZ 004148a0 f   MainFrm.obj
 0002:000038f0       ?GetThisMessageMap@CMainFrame@@KGPBUAFX_MSGMAP@@XZ 004148f0 f   MainFrm.obj
 0002:00003930       ??0CMainFrame@@IAE@XZ      00414930 f   MainFrm.obj
 0002:00003a00       ??_GCMainFrame@@UAEPAXI@Z  00414a00 f i MainFrm.obj
 0002:00003a00       ??_ECMainFrame@@UAEPAXI@Z  00414a00 f i MainFrm.obj
 0002:00003a70       ??1CMainFrame@@UAE@XZ      00414a70 f   MainFrm.obj
 0002:00003b40       ?OnCreate@CMainFrame@@IAEHPAUtagCREATESTRUCTW@@@Z 00414b40 f   MainFrm.obj
 0002:00003d70       ?PreCreateWindow@CMainFrame@@UAEHAAUtagCREATESTRUCTW@@@Z 00414d70 f   MainFrm.obj
 0002:00003de0       ?AssertValid@CMainFrame@@UBEXXZ 00414de0 f   MainFrm.obj
 0002:00003e30       ?Dump@CMainFrame@@UBEXAAVCDumpContext@@@Z 00414e30 f   MainFrm.obj
 0002:00003e90       ??0CTraceFileAndLineInfo@ATL@@QAE@PBDH@Z 00414e90 f i MainFrm.obj
 0002:00003ee0       ??RCTraceFileAndLineInfo@ATL@@QBAXPB_WZZ 00414ee0 f i MainFrm.obj
 0002:00003f70       ?TraceV@CTrace@ATL@@QBAXPBDHKIPB_WPAD@Z 00414f70 f i MainFrm.obj
 0002:00003fe0       ??BCTraceCategory@ATL@@QBEKXZ 00414fe0 f i MainFrm.obj
 0002:00004020       ?_AfxInitManaged@@YAHXZ    00415020 f i stdafx.obj
 0002:00004050       ??0Thank_you@Define_the_symbol__ATL_MIXED@@QAE@XZ 00415050 f i stdafx.obj
 0002:000040a0       ?one@Thank_you@Define_the_symbol__ATL_MIXED@@UAEXXZ 004150a0 f i stdafx.obj
 0002:000040d4       _glFinish@0                004150d4 f   OpenGL32:OPENGL32.dll
 0002:000040da       _glClear@4                 004150da f   OpenGL32:OPENGL32.dll
 0002:000040e0       _wglCreateContext@4        004150e0 f   OpenGL32:OPENGL32.dll
 0002:000040e6       _wglMakeCurrent@8          004150e6 f   OpenGL32:OPENGL32.dll
 0002:000040ec       _glLoadIdentity@0          004150ec f   OpenGL32:OPENGL32.dll
 0002:000040f2       _glMatrixMode@4            004150f2 f   OpenGL32:OPENGL32.dll
 0002:000040f8       _glViewport@16             004150f8 f   OpenGL32:OPENGL32.dll
 0002:000040fe       _glShadeModel@4            004150fe f   OpenGL32:OPENGL32.dll
 0002:00004104       _glEnable@4                00415104 f   OpenGL32:OPENGL32.dll
 0002:0000410a       _glDepthFunc@4             0041510a f   OpenGL32:OPENGL32.dll
 0002:00004110       _glClearDepth@8            00415110 f   OpenGL32:OPENGL32.dll
 0002:00004116       _glClearColor@16           00415116 f   OpenGL32:OPENGL32.dll
 0002:0000411c       _gluPerspective@32         0041511c f   GLu32:GLU32.dll
 0002:00004122       ??3@YAXPAX@Z               00415122 f   mfc90ud:mfc90ud.dll
 0002:00004128       ?GetThisMessageMap@CDialog@@KGPBUAFX_MSGMAP@@XZ 00415128 f   mfc90ud:mfc90ud.dll
 0002:0000412e       ?GetThisMessageMap@CWinApp@@KGPBUAFX_MSGMAP@@XZ 0041512e f   mfc90ud:mfc90ud.dll
 0002:00004134       ?OnFilePrintSetup@CWinApp@@IAEXXZ 00415134 f   mfc90ud:mfc90ud.dll
 0002:0000413a       ?OnFileOpen@CWinApp@@IAEXXZ 0041513a f   mfc90ud:mfc90ud.dll
 0002:00004140       ?OnFileNew@CWinApp@@IAEXXZ 00415140 f   mfc90ud:mfc90ud.dll
 0002:00004146       ??0CWinApp@@QAE@PB_W@Z     00415146 f   mfc90ud:mfc90ud.dll
 0002:0000414c       ?GetRuntimeClass@CWinApp@@UBEPAUCRuntimeClass@@XZ 0041514c f   mfc90ud:mfc90ud.dll
 0002:00004152       ?Serialize@CObject@@UAEXAAVCArchive@@@Z 00415152 f   mfc90ud:mfc90ud.dll
 0002:00004158       ?AssertValid@CWinApp@@UBEXXZ 00415158 f   mfc90ud:mfc90ud.dll
 0002:0000415e       ?Dump@CWinApp@@UBEXAAVCDumpContext@@@Z 0041515e f   mfc90ud:mfc90ud.dll
 0002:00004164       ?OnCmdMsg@CCmdTarget@@UAEHIHPAXPAUAFX_CMDHANDLERINFO@@@Z 00415164 f   mfc90ud:mfc90ud.dll
 0002:0000416a       ?OnFinalRelease@CCmdTarget@@UAEXXZ 0041516a f   mfc90ud:mfc90ud.dll
 0002:00004170       ?IsInvokeAllowed@CCmdTarget@@UAEHJ@Z 00415170 f   mfc90ud:mfc90ud.dll
 0002:00004176       ?GetDispatchIID@CCmdTarget@@UAEHPAU_GUID@@@Z 00415176 f   mfc90ud:mfc90ud.dll
 0002:0000417c       ?GetTypeInfoCount@CCmdTarget@@UAEIXZ 0041517c f   mfc90ud:mfc90ud.dll
 0002:00004182       ?GetTypeLibCache@CCmdTarget@@UAEPAVCTypeLibCache@@XZ 00415182 f   mfc90ud:mfc90ud.dll
 0002:00004188       ?GetTypeLib@CCmdTarget@@UAEJKPAPAUITypeLib@@@Z 00415188 f   mfc90ud:mfc90ud.dll
 0002:0000418e       ?GetCommandMap@CCmdTarget@@MBEPBUAFX_OLECMDMAP@@XZ 0041518e f   mfc90ud:mfc90ud.dll
 0002:00004194       ?GetDispatchMap@CCmdTarget@@MBEPBUAFX_DISPMAP@@XZ 00415194 f   mfc90ud:mfc90ud.dll
 0002:0000419a       ?GetConnectionMap@CCmdTarget@@MBEPBUAFX_CONNECTIONMAP@@XZ 0041519a f   mfc90ud:mfc90ud.dll
 0002:000041a0       ?GetInterfaceMap@CCmdTarget@@MBEPBUAFX_INTERFACEMAP@@XZ 004151a0 f   mfc90ud:mfc90ud.dll
 0002:000041a6       ?GetEventSinkMap@CCmdTarget@@MBEPBUAFX_EVENTSINKMAP@@XZ 004151a6 f   mfc90ud:mfc90ud.dll
 0002:000041ac       ?OnCreateAggregates@CCmdTarget@@UAEHXZ 004151ac f   mfc90ud:mfc90ud.dll
 0002:000041b2       ?GetInterfaceHook@CCmdTarget@@UAEPAUIUnknown@@PBX@Z 004151b2 f   mfc90ud:mfc90ud.dll
 0002:000041b8       ?GetExtraConnectionPoints@CCmdTarget@@MAEHPAVCPtrArray@@@Z 004151b8 f   mfc90ud:mfc90ud.dll
 0002:000041be       ?GetConnectionHook@CCmdTarget@@MAEPAUIConnectionPoint@@ABU_GUID@@@Z 004151be f   mfc90ud:mfc90ud.dll
 0002:000041c4       ?Run@CWinApp@@UAEHXZ       004151c4 f   mfc90ud:mfc90ud.dll
 0002:000041ca       ?PreTranslateMessage@CWinThread@@UAEHPAUtagMSG@@@Z 004151ca f   mfc90ud:mfc90ud.dll
 0002:000041d0       ?PumpMessage@CWinThread@@UAEHXZ 004151d0 f   mfc90ud:mfc90ud.dll
 0002:000041d6       ?OnIdle@CWinApp@@UAEHJ@Z   004151d6 f   mfc90ud:mfc90ud.dll
 0002:000041dc       ?IsIdleMessage@CWinThread@@UAEHPAUtagMSG@@@Z 004151dc f   mfc90ud:mfc90ud.dll
 0002:000041e2       ?ExitInstance@CWinApp@@UAEHXZ 004151e2 f   mfc90ud:mfc90ud.dll
 0002:000041e8       ?ProcessWndProcException@CWinApp@@UAEJPAVCException@@PBUtagMSG@@@Z 004151e8 f   mfc90ud:mfc90ud.dll
 0002:000041ee       ?ProcessMessageFilter@CWinThread@@UAEHHPAUtagMSG@@@Z 004151ee f   mfc90ud:mfc90ud.dll
 0002:000041f4       ?GetMainWnd@CWinThread@@UAEPAVCWnd@@XZ 004151f4 f   mfc90ud:mfc90ud.dll
 0002:000041fa       ?Delete@CWinThread@@UAEXXZ 004151fa f   mfc90ud:mfc90ud.dll
 0002:00004200       ?InitLibId@CWinApp@@UAEXXZ 00415200 f   mfc90ud:mfc90ud.dll
 0002:00004206       ?Register@CWinApp@@UAEHXZ  00415206 f   mfc90ud:mfc90ud.dll
 0002:0000420c       ?Unregister@CWinApp@@UAEHXZ 0041520c f   mfc90ud:mfc90ud.dll
 0002:00004212       ?OpenDocumentFile@CWinApp@@UAEPAVCDocument@@PB_W@Z 00415212 f   mfc90ud:mfc90ud.dll
 0002:00004218       ?AddToRecentFileList@CWinApp@@UAEXPB_W@Z 00415218 f   mfc90ud:mfc90ud.dll
 0002:0000421e       ?InitApplication@CWinApp@@UAEHXZ 0041521e f   mfc90ud:mfc90ud.dll
 0002:00004224       ?SaveAllModified@CWinApp@@UAEHXZ 00415224 f   mfc90ud:mfc90ud.dll
 0002:0000422a       ?DoMessageBox@CWinApp@@UAEHPB_WII@Z 0041522a f   mfc90ud:mfc90ud.dll
 0002:00004230       ?DoWaitCursor@CWinApp@@UAEXH@Z 00415230 f   mfc90ud:mfc90ud.dll
 0002:00004236       ?OnDDECommand@CWinApp@@UAEHPA_W@Z 00415236 f   mfc90ud:mfc90ud.dll
 0002:0000423c       ?WinHelpW@CWinApp@@UAEXKI@Z 0041523c f   mfc90ud:mfc90ud.dll
 0002:00004242       ?HtmlHelpW@CWinApp@@UAEXKI@Z 00415242 f   mfc90ud:mfc90ud.dll
 0002:00004248       ?WinHelpInternal@CWinApp@@UAEXKI@Z 00415248 f   mfc90ud:mfc90ud.dll
 0002:0000424e       ?LoadAppLangResourceDLL@CWinApp@@UAEPAUHINSTANCE__@@XZ 0041524e f   mfc90ud:mfc90ud.dll
 0002:00004254       ?LoadSysPolicies@CWinApp@@UAEHXZ 00415254 f   mfc90ud:mfc90ud.dll
 0002:0000425a       ??3CObject@@SGXPAX@Z       0041525a f   mfc90ud:mfc90ud.dll
 0002:00004260       ??1CWinApp@@UAE@XZ         00415260 f   mfc90ud:mfc90ud.dll
 0002:00004266       ??3CObject@@SGXPAXPBDH@Z   00415266 f   mfc90ud:mfc90ud.dll
 0002:0000426c       ?UpdateWindow@CWnd@@QAEXXZ 0041526c f   mfc90ud:mfc90ud.dll
 0002:00004272       ?ShowWindow@CWnd@@QAEHH@Z  00415272 f   mfc90ud:mfc90ud.dll
 0002:00004278       ??1CCommandLineInfo@@UAE@XZ 00415278 f   mfc90ud:mfc90ud.dll
 0002:0000427e       ?ProcessShellCommand@CWinApp@@QAEHAAVCCommandLineInfo@@@Z 0041527e f   mfc90ud:mfc90ud.dll
 0002:00004284       ?ParseCommandLine@CWinApp@@QAEXAAVCCommandLineInfo@@@Z 00415284 f   mfc90ud:mfc90ud.dll
 0002:0000428a       ??0CCommandLineInfo@@QAE@XZ 0041528a f   mfc90ud:mfc90ud.dll
 0002:00004290       ?AddDocTemplate@CWinApp@@QAEXPAVCDocTemplate@@@Z 00415290 f   mfc90ud:mfc90ud.dll
 0002:00004296       ??0CSingleDocTemplate@@QAE@IPAUCRuntimeClass@@00@Z 00415296 f   mfc90ud:mfc90ud.dll
 0002:0000429c       ??2CObject@@SGPAXIPBDH@Z   0041529c f   mfc90ud:mfc90ud.dll
 0002:000042a2       ?LoadStdProfileSettings@CWinApp@@IAEXI@Z 004152a2 f   mfc90ud:mfc90ud.dll
 0002:000042a8       ?SetRegistryKey@CWinApp@@IAEXPB_W@Z 004152a8 f   mfc90ud:mfc90ud.dll
 0002:000042ae       ?AfxEnableControlContainer@@YAXPAVCOccManager@@@Z 004152ae f   mfc90ud:mfc90ud.dll
 0002:000042b4       ?AfxMessageBox@@YGHIII@Z   004152b4 f   mfc90ud:mfc90ud.dll
 0002:000042ba       ?AfxOleInit@@YGHXZ         004152ba f   mfc90ud:mfc90ud.dll
 0002:000042c0       ?InitInstance@CWinApp@@UAEHXZ 004152c0 f   mfc90ud:mfc90ud.dll
 0002:000042c6       ??0CDialog@@QAE@IPAVCWnd@@@Z 004152c6 f   mfc90ud:mfc90ud.dll
 0002:000042cc       ?GetRuntimeClass@CDialog@@UBEPAUCRuntimeClass@@XZ 004152cc f   mfc90ud:mfc90ud.dll
 0002:000042d2       ?AssertValid@CDialog@@UBEXXZ 004152d2 f   mfc90ud:mfc90ud.dll
 0002:000042d8       ?Dump@CDialog@@UBEXAAVCDumpContext@@@Z 004152d8 f   mfc90ud:mfc90ud.dll
 0002:000042de       ?OnCmdMsg@CDialog@@UAEHIHPAXPAUAFX_CMDHANDLERINFO@@@Z 004152de f   mfc90ud:mfc90ud.dll
 0002:000042e4       ?OnFinalRelease@CWnd@@UAEXXZ 004152e4 f   mfc90ud:mfc90ud.dll
 0002:000042ea       ?GetInterfaceMap@CWnd@@MBEPBUAFX_INTERFACEMAP@@XZ 004152ea f   mfc90ud:mfc90ud.dll
 0002:000042f0       ?PreSubclassWindow@CWnd@@UAEXXZ 004152f0 f   mfc90ud:mfc90ud.dll
 0002:000042f6       ?Create@CWnd@@UAEHPB_W0KABUtagRECT@@PAV1@IPAUCCreateContext@@@Z 004152f6 f   mfc90ud:mfc90ud.dll
 0002:000042fc       ?CreateEx@CWnd@@UAEHKPB_W0KABUtagRECT@@PAV1@IPAX@Z 004152fc f   mfc90ud:mfc90ud.dll
 0002:00004302       ?CreateEx@CWnd@@UAEHKPB_W0KHHHHPAUHWND__@@PAUHMENU__@@PAX@Z 00415302 f   mfc90ud:mfc90ud.dll
 0002:00004308       ?DestroyWindow@CWnd@@UAEHXZ 00415308 f   mfc90ud:mfc90ud.dll
 0002:0000430e       ?PreCreateWindow@CWnd@@UAEHAAUtagCREATESTRUCTW@@@Z 0041530e f   mfc90ud:mfc90ud.dll
 0002:00004314       ?CalcWindowRect@CWnd@@UAEXPAUtagRECT@@I@Z 00415314 f   mfc90ud:mfc90ud.dll
 0002:0000431a       ?GetMenu@CWnd@@UBEPAVCMenu@@XZ 0041531a f   mfc90ud:mfc90ud.dll
 0002:00004320       ?SetMenu@CWnd@@UAEHPAVCMenu@@@Z 00415320 f   mfc90ud:mfc90ud.dll
 0002:00004326       ?OnToolHitTest@CWnd@@UBEHVCPoint@@PAUtagTOOLINFOW@@@Z 00415326 f   mfc90ud:mfc90ud.dll
 0002:0000432c       ?GetScrollBarCtrl@CWnd@@UBEPAVCScrollBar@@H@Z 0041532c f   mfc90ud:mfc90ud.dll
 0002:00004332       ?WinHelpW@CWnd@@UAEXKI@Z   00415332 f   mfc90ud:mfc90ud.dll
 0002:00004338       ?HtmlHelpW@CWnd@@UAEXKI@Z  00415338 f   mfc90ud:mfc90ud.dll
 0002:0000433e       ?WinHelpInternal@CWnd@@UAEXKI@Z 0041533e f   mfc90ud:mfc90ud.dll
 0002:00004344       ?ContinueModal@CWnd@@UAEHXZ 00415344 f   mfc90ud:mfc90ud.dll
 0002:0000434a       ?EndModalLoop@CWnd@@UAEXH@Z 0041534a f   mfc90ud:mfc90ud.dll
 0002:00004350       ?EnsureStdObj@CWnd@@UAEJXZ 00415350 f   mfc90ud:mfc90ud.dll
 0002:00004356       ?get_accParent@CWnd@@UAEJPAPAUIDispatch@@@Z 00415356 f   mfc90ud:mfc90ud.dll
 0002:0000435c       ?get_accChildCount@CWnd@@UAEJPAJ@Z 0041535c f   mfc90ud:mfc90ud.dll
 0002:00004362       ?get_accChild@CWnd@@UAEJUtagVARIANT@@PAPAUIDispatch@@@Z 00415362 f   mfc90ud:mfc90ud.dll
 0002:00004368       ?get_accName@CWnd@@UAEJUtagVARIANT@@PAPA_W@Z 00415368 f   mfc90ud:mfc90ud.dll
 0002:0000436e       ?get_accValue@CWnd@@UAEJUtagVARIANT@@PAPA_W@Z 0041536e f   mfc90ud:mfc90ud.dll
 0002:00004374       ?get_accDescription@CWnd@@UAEJUtagVARIANT@@PAPA_W@Z 00415374 f   mfc90ud:mfc90ud.dll
 0002:0000437a       ?get_accRole@CWnd@@UAEJUtagVARIANT@@PAU2@@Z 0041537a f   mfc90ud:mfc90ud.dll
 0002:00004380       ?get_accState@CWnd@@UAEJUtagVARIANT@@PAU2@@Z 00415380 f   mfc90ud:mfc90ud.dll
 0002:00004386       ?get_accHelp@CWnd@@UAEJUtagVARIANT@@PAPA_W@Z 00415386 f   mfc90ud:mfc90ud.dll
 0002:0000438c       ?get_accHelpTopic@CWnd@@UAEJPAPA_WUtagVARIANT@@PAJ@Z 0041538c f   mfc90ud:mfc90ud.dll
 0002:00004392       ?get_accKeyboardShortcut@CWnd@@UAEJUtagVARIANT@@PAPA_W@Z 00415392 f   mfc90ud:mfc90ud.dll
 0002:00004398       ?get_accFocus@CWnd@@UAEJPAUtagVARIANT@@@Z 00415398 f   mfc90ud:mfc90ud.dll
 0002:0000439e       ?get_accSelection@CWnd@@UAEJPAUtagVARIANT@@@Z 0041539e f   mfc90ud:mfc90ud.dll
 0002:000043a4       ?get_accDefaultAction@CWnd@@UAEJUtagVARIANT@@PAPA_W@Z 004153a4 f   mfc90ud:mfc90ud.dll
 0002:000043aa       ?accSelect@CWnd@@UAEJJUtagVARIANT@@@Z 004153aa f   mfc90ud:mfc90ud.dll
 0002:000043b0       ?accLocation@CWnd@@UAEJPAJ000UtagVARIANT@@@Z 004153b0 f   mfc90ud:mfc90ud.dll
 0002:000043b6       ?accNavigate@CWnd@@UAEJJUtagVARIANT@@PAU2@@Z 004153b6 f   mfc90ud:mfc90ud.dll
 0002:000043bc       ?accHitTest@CWnd@@UAEJJJPAUtagVARIANT@@@Z 004153bc f   mfc90ud:mfc90ud.dll
 0002:000043c2       ?accDoDefaultAction@CWnd@@UAEJUtagVARIANT@@@Z 004153c2 f   mfc90ud:mfc90ud.dll
 0002:000043c8       ?put_accName@CWnd@@UAEJUtagVARIANT@@PA_W@Z 004153c8 f   mfc90ud:mfc90ud.dll
 0002:000043ce       ?put_accValue@CWnd@@UAEJUtagVARIANT@@PA_W@Z 004153ce f   mfc90ud:mfc90ud.dll
 0002:000043d4       ?SetProxy@CWnd@@UAEJPAUIAccessibleProxy@@@Z 004153d4 f   mfc90ud:mfc90ud.dll
 0002:000043da       ?CreateAccessibleProxy@CWnd@@UAEJIJPAJ@Z 004153da f   mfc90ud:mfc90ud.dll
 0002:000043e0       ?OnCommand@CWnd@@MAEHIJ@Z  004153e0 f   mfc90ud:mfc90ud.dll
 0002:000043e6       ?OnNotify@CWnd@@MAEHIJPAJ@Z 004153e6 f   mfc90ud:mfc90ud.dll
 0002:000043ec       ?GetSuperWndProcAddr@CWnd@@MAEPAP6GJPAUHWND__@@IIJ@ZXZ 004153ec f   mfc90ud:mfc90ud.dll
 0002:000043f2       ?BeginModalState@CWnd@@UAEXXZ 004153f2 f   mfc90ud:mfc90ud.dll
 0002:000043f8       ?EndModalState@CWnd@@UAEXXZ 004153f8 f   mfc90ud:mfc90ud.dll
 0002:000043fe       ?PreTranslateMessage@CDialog@@UAEHPAUtagMSG@@@Z 004153fe f   mfc90ud:mfc90ud.dll
 0002:00004404       ?OnAmbientProperty@CWnd@@UAEHPAVCOleControlSite@@JPAUtagVARIANT@@@Z 00415404 f   mfc90ud:mfc90ud.dll
 0002:0000440a       ?WindowProc@CWnd@@MAEJIIJ@Z 0041540a f   mfc90ud:mfc90ud.dll
 0002:00004410       ?OnWndMsg@CWnd@@MAEHIIJPAJ@Z 00415410 f   mfc90ud:mfc90ud.dll
 0002:00004416       ?DefWindowProcW@CWnd@@MAEJIIJ@Z 00415416 f   mfc90ud:mfc90ud.dll
 0002:0000441c       ?PostNcDestroy@CWnd@@MAEXXZ 0041541c f   mfc90ud:mfc90ud.dll
 0002:00004422       ?OnChildNotify@CWnd@@MAEHIIJPAJ@Z 00415422 f   mfc90ud:mfc90ud.dll
 0002:00004428       ?CheckAutoCenter@CDialog@@UAEHXZ 00415428 f   mfc90ud:mfc90ud.dll
 0002:0000442e       ?IsFrameWnd@CWnd@@UBEHXZ   0041542e f   mfc90ud:mfc90ud.dll
 0002:00004434       ?CreateControlContainer@CWnd@@MAEHPAPAVCOleControlContainer@@@Z 00415434 f   mfc90ud:mfc90ud.dll
 0002:0000443a       ?CreateControlSite@CWnd@@MAEHPAVCOleControlContainer@@PAPAVCOleControlSite@@IABU_GUID@@@Z 0041543a f   mfc90ud:mfc90ud.dll
 0002:00004440       ?SetOccDialogInfo@CDialog@@MAEHPAU_AFX_OCC_DIALOG_INFO@@@Z 00415440 f   mfc90ud:mfc90ud.dll
 0002:00004446       ?GetOccDialogInfo@CDialog@@MAEPAU_AFX_OCC_DIALOG_INFO@@XZ 00415446 f   mfc90ud:mfc90ud.dll
 0002:0000444c       ?Create@CDialog@@UAEHIPAVCWnd@@@Z 0041544c f   mfc90ud:mfc90ud.dll
 0002:00004452       ?Create@CDialog@@UAEHPB_WPAVCWnd@@@Z 00415452 f   mfc90ud:mfc90ud.dll
 0002:00004458       ?CreateIndirect@CDialog@@UAEHPAXPAVCWnd@@@Z 00415458 f   mfc90ud:mfc90ud.dll
 0002:0000445e       ?CreateIndirect@CDialog@@UAEHPBUDLGTEMPLATE@@PAVCWnd@@PAX@Z 0041545e f   mfc90ud:mfc90ud.dll
 0002:00004464       ?DoModal@CDialog@@UAEHXZ   00415464 f   mfc90ud:mfc90ud.dll
 0002:0000446a       ?OnInitDialog@CDialog@@UAEHXZ 0041546a f   mfc90ud:mfc90ud.dll
 0002:00004470       ?OnSetFont@CDialog@@UAEXPAVCFont@@@Z 00415470 f   mfc90ud:mfc90ud.dll
 0002:00004476       ?OnOK@CDialog@@MAEXXZ      00415476 f   mfc90ud:mfc90ud.dll
 0002:0000447c       ?OnCancel@CDialog@@MAEXXZ  0041547c f   mfc90ud:mfc90ud.dll
 0002:00004482       ?PreInitDialog@CDialog@@MAEXXZ 00415482 f   mfc90ud:mfc90ud.dll
 0002:00004488       ??1CDialog@@UAE@XZ         00415488 f   mfc90ud:mfc90ud.dll
 0002:0000448e       ?DoDataExchange@CWnd@@MAEXPAVCDataExchange@@@Z 0041548e f   mfc90ud:mfc90ud.dll
 0002:00004494       ?GetThisMessageMap@CDocument@@KGPBUAFX_MSGMAP@@XZ 00415494 f   mfc90ud:mfc90ud.dll
 0002:0000449a       ?GetThisClass@CDocument@@SGPAUCRuntimeClass@@XZ 0041549a f   mfc90ud:mfc90ud.dll
 0002:000044a0       ??0CDocument@@QAE@XZ       004154a0 f   mfc90ud:mfc90ud.dll
 0002:000044a6       ?OnCmdMsg@CDocument@@UAEHIHPAXPAUAFX_CMDHANDLERINFO@@@Z 004154a6 f   mfc90ud:mfc90ud.dll
 0002:000044ac       ?OnFinalRelease@CDocument@@UAEXXZ 004154ac f   mfc90ud:mfc90ud.dll
 0002:000044b2       ?SetTitle@CDocument@@UAEXPB_W@Z 004154b2 f   mfc90ud:mfc90ud.dll
 0002:000044b8       ?SetPathName@CDocument@@UAEXPB_WH@Z 004154b8 f   mfc90ud:mfc90ud.dll
 0002:000044be       ?IsModified@CDocument@@UAEHXZ 004154be f   mfc90ud:mfc90ud.dll
 0002:000044c4       ?SetModifiedFlag@CDocument@@UAEXH@Z 004154c4 f   mfc90ud:mfc90ud.dll
 0002:000044ca       ?GetFirstViewPosition@CDocument@@UBEPAU__POSITION@@XZ 004154ca f   mfc90ud:mfc90ud.dll
 0002:000044d0       ?GetNextView@CDocument@@UBEPAVCView@@AAPAU__POSITION@@@Z 004154d0 f   mfc90ud:mfc90ud.dll
 0002:000044d6       ?OnChangedViewList@CDocument@@UAEXXZ 004154d6 f   mfc90ud:mfc90ud.dll
 0002:000044dc       ?DeleteContents@CDocument@@UAEXXZ 004154dc f   mfc90ud:mfc90ud.dll
 0002:000044e2       ?OnOpenDocument@CDocument@@UAEHPB_W@Z 004154e2 f   mfc90ud:mfc90ud.dll
 0002:000044e8       ?OnSaveDocument@CDocument@@UAEHPB_W@Z 004154e8 f   mfc90ud:mfc90ud.dll
 0002:000044ee       ?OnCloseDocument@CDocument@@UAEXXZ 004154ee f   mfc90ud:mfc90ud.dll
 0002:000044f4       ?ReportSaveLoadException@CDocument@@UAEXPB_WPAVCException@@HI@Z 004154f4 f   mfc90ud:mfc90ud.dll
 0002:000044fa       ?GetFile@CDocument@@UAEPAVCFile@@PB_WIPAVCFileException@@@Z 004154fa f   mfc90ud:mfc90ud.dll
 0002:00004500       ?ReleaseFile@CDocument@@UAEXPAVCFile@@H@Z 00415500 f   mfc90ud:mfc90ud.dll
 0002:00004506       ?CanCloseFrame@CDocument@@UAEHPAVCFrameWnd@@@Z 00415506 f   mfc90ud:mfc90ud.dll
 0002:0000450c       ?SaveModified@CDocument@@UAEHXZ 0041550c f   mfc90ud:mfc90ud.dll
 0002:00004512       ?PreCloseFrame@CDocument@@UAEXPAVCFrameWnd@@@Z 00415512 f   mfc90ud:mfc90ud.dll
 0002:00004518       ?DoSave@CDocument@@UAEHPB_WH@Z 00415518 f   mfc90ud:mfc90ud.dll
 0002:0000451e       ?DoFileSave@CDocument@@UAEHXZ 0041551e f   mfc90ud:mfc90ud.dll
 0002:00004524       ?UpdateFrameCounts@CDocument@@UAEXXZ 00415524 f   mfc90ud:mfc90ud.dll
 0002:0000452a       ?GetDefaultMenu@CDocument@@UAEPAUHMENU__@@XZ 0041552a f   mfc90ud:mfc90ud.dll
 0002:00004530       ?GetDefaultAccelerator@CDocument@@UAEPAUHACCEL__@@XZ 00415530 f   mfc90ud:mfc90ud.dll
 0002:00004536       ?OnIdle@CDocument@@UAEXXZ  00415536 f   mfc90ud:mfc90ud.dll
 0002:0000453c       ??1CDocument@@UAE@XZ       0041553c f   mfc90ud:mfc90ud.dll
 0002:00004542       ?OnNewDocument@CDocument@@UAEHXZ 00415542 f   mfc90ud:mfc90ud.dll
 0002:00004548       ?IsStoring@CArchive@@QBEHXZ 00415548 f   mfc90ud:mfc90ud.dll
 0002:0000454e       ?AssertValid@CDocument@@UBEXXZ 0041554e f   mfc90ud:mfc90ud.dll
 0002:00004554       ?Dump@CDocument@@UBEXAAVCDumpContext@@@Z 00415554 f   mfc90ud:mfc90ud.dll
 0002:0000455a       ?GetThisMessageMap@CView@@KGPBUAFX_MSGMAP@@XZ 0041555a f   mfc90ud:mfc90ud.dll
 0002:00004560       ?OnFilePrintPreview@CView@@IAEXXZ 00415560 f   mfc90ud:mfc90ud.dll
 0002:00004566       ?OnFilePrint@CView@@IAEXXZ 00415566 f   mfc90ud:mfc90ud.dll
 0002:0000456c       ?GetThisClass@CView@@SGPAUCRuntimeClass@@XZ 0041556c f   mfc90ud:mfc90ud.dll
 0002:00004572       ??0CView@@IAE@XZ           00415572 f   mfc90ud:mfc90ud.dll
 0002:00004578       ?OnCmdMsg@CView@@UAEHIHPAXPAUAFX_CMDHANDLERINFO@@@Z 00415578 f   mfc90ud:mfc90ud.dll
 0002:0000457e       ?CalcWindowRect@CView@@UAEXPAUtagRECT@@I@Z 0041557e f   mfc90ud:mfc90ud.dll
 0002:00004584       ?GetScrollBarCtrl@CView@@UBEPAVCScrollBar@@H@Z 00415584 f   mfc90ud:mfc90ud.dll
 0002:0000458a       ?PreTranslateMessage@CWnd@@UAEHPAUtagMSG@@@Z 0041558a f   mfc90ud:mfc90ud.dll
 0002:00004590       ?PostNcDestroy@CView@@MAEXXZ 00415590 f   mfc90ud:mfc90ud.dll
 0002:00004596       ?CheckAutoCenter@CWnd@@UAEHXZ 00415596 f   mfc90ud:mfc90ud.dll
 0002:0000459c       ?SetOccDialogInfo@CWnd@@MAEHPAU_AFX_OCC_DIALOG_INFO@@@Z 0041559c f   mfc90ud:mfc90ud.dll
 0002:000045a2       ?GetOccDialogInfo@CWnd@@MAEPAU_AFX_OCC_DIALOG_INFO@@XZ 004155a2 f   mfc90ud:mfc90ud.dll
 0002:000045a8       ?IsSelected@CView@@UBEHPBVCObject@@@Z 004155a8 f   mfc90ud:mfc90ud.dll
 0002:000045ae       ?OnScroll@CView@@UAEHIIH@Z 004155ae f   mfc90ud:mfc90ud.dll
 0002:000045b4       ?OnScrollBy@CView@@UAEHVCSize@@H@Z 004155b4 f   mfc90ud:mfc90ud.dll
 0002:000045ba       ?OnDragEnter@CView@@UAEKPAVCOleDataObject@@KVCPoint@@@Z 004155ba f   mfc90ud:mfc90ud.dll
 0002:000045c0       ?OnDragOver@CView@@UAEKPAVCOleDataObject@@KVCPoint@@@Z 004155c0 f   mfc90ud:mfc90ud.dll
 0002:000045c6       ?OnDragLeave@CView@@UAEXXZ 004155c6 f   mfc90ud:mfc90ud.dll
 0002:000045cc       ?OnDrop@CView@@UAEHPAVCOleDataObject@@KVCPoint@@@Z 004155cc f   mfc90ud:mfc90ud.dll
 0002:000045d2       ?OnDropEx@CView@@UAEKPAVCOleDataObject@@KKVCPoint@@@Z 004155d2 f   mfc90ud:mfc90ud.dll
 0002:000045d8       ?OnDragScroll@CView@@UAEKKVCPoint@@@Z 004155d8 f   mfc90ud:mfc90ud.dll
 0002:000045de       ?OnPrepareDC@CView@@UAEXPAVCDC@@PAUCPrintInfo@@@Z 004155de f   mfc90ud:mfc90ud.dll
 0002:000045e4       ?OnInitialUpdate@CView@@UAEXXZ 004155e4 f   mfc90ud:mfc90ud.dll
 0002:000045ea       ?OnActivateView@CView@@MAEXHPAV1@0@Z 004155ea f   mfc90ud:mfc90ud.dll
 0002:000045f0       ?OnActivateFrame@CView@@MAEXIPAVCFrameWnd@@@Z 004155f0 f   mfc90ud:mfc90ud.dll
 0002:000045f6       ?OnUpdate@CView@@MAEXPAV1@JPAVCObject@@@Z 004155f6 f   mfc90ud:mfc90ud.dll
 0002:000045fc       ?OnPrint@CView@@MAEXPAVCDC@@PAUCPrintInfo@@@Z 004155fc f   mfc90ud:mfc90ud.dll
 0002:00004602       ?OnEndPrintPreview@CView@@MAEXPAVCDC@@PAUCPrintInfo@@UtagPOINT@@PAVCPreviewView@@@Z 00415602 f   mfc90ud:mfc90ud.dll
 0002:00004608       ??1CView@@UAE@XZ           00415608 f   mfc90ud:mfc90ud.dll
 0002:0000460e       ?PreCreateWindow@CView@@MAEHAAUtagCREATESTRUCTW@@@Z 0041560e f   mfc90ud:mfc90ud.dll
 0002:00004614       ?GetSafeHdc@CDC@@QBEPAUHDC__@@XZ 00415614 f   mfc90ud:mfc90ud.dll
 0002:0000461a       ?AfxAssertValidObject@@YGXPBVCObject@@PBDH@Z 0041561a f   mfc90ud:mfc90ud.dll
 0002:00004620       ?DoPreparePrinting@CView@@QAEHPAUCPrintInfo@@@Z 00415620 f   mfc90ud:mfc90ud.dll
 0002:00004626       ?AssertValid@CView@@UBEXXZ 00415626 f   mfc90ud:mfc90ud.dll
 0002:0000462c       ?Dump@CView@@UBEXAAVCDumpContext@@@Z 0041562c f   mfc90ud:mfc90ud.dll
 0002:00004632       ?AfxAssertFailedLine@@YGHPBDH@Z 00415632 f   mfc90ud:mfc90ud.dll
 0002:00004638       ?IsKindOf@CObject@@QBEHPBUCRuntimeClass@@@Z 00415638 f   mfc90ud:mfc90ud.dll
 0002:0000463e       ?OnCreate@CView@@IAEHPAUtagCREATESTRUCTW@@@Z 0041563e f   mfc90ud:mfc90ud.dll
 0002:00004644       ?MessageBoxW@CWnd@@QAEHPB_W0I@Z 00415644 f   mfc90ud:mfc90ud.dll
 0002:0000464a       ?OnDestroy@CView@@IAEXXZ   0041564a f   mfc90ud:mfc90ud.dll
 0002:00004650       ?OnSize@CWnd@@IAEXIHH@Z    00415650 f   mfc90ud:mfc90ud.dll
 0002:00004656       ?OnEraseBkgnd@CWnd@@IAEHPAVCDC@@@Z 00415656 f   mfc90ud:mfc90ud.dll
 0002:0000465c       ?AfxMessageBox@@YGHPB_WII@Z 0041565c f   mfc90ud:mfc90ud.dll
 0002:00004662       ??0CClientDC@@QAE@PAVCWnd@@@Z 00415662 f   mfc90ud:mfc90ud.dll
 0002:00004668       ?GetThisMessageMap@CFrameWnd@@KGPBUAFX_MSGMAP@@XZ 00415668 f   mfc90ud:mfc90ud.dll
 0002:0000466e       ?GetThisClass@CFrameWnd@@SGPAUCRuntimeClass@@XZ 0041566e f   mfc90ud:mfc90ud.dll
 0002:00004674       ??1CStatusBar@@UAE@XZ      00415674 f   mfc90ud:mfc90ud.dll
 0002:0000467a       ??1CFrameWnd@@UAE@XZ       0041567a f   mfc90ud:mfc90ud.dll
 0002:00004680       ??0CToolBar@@QAE@XZ        00415680 f   mfc90ud:mfc90ud.dll
 0002:00004686       ??0CStatusBar@@QAE@XZ      00415686 f   mfc90ud:mfc90ud.dll
 0002:0000468c       ??0CFrameWnd@@QAE@XZ       0041568c f   mfc90ud:mfc90ud.dll
 0002:00004692       ?OnCmdMsg@CFrameWnd@@UAEHIHPAXPAUAFX_CMDHANDLERINFO@@@Z 00415692 f   mfc90ud:mfc90ud.dll
 0002:00004698       ?GetMenu@CFrameWnd@@UBEPAVCMenu@@XZ 00415698 f   mfc90ud:mfc90ud.dll
 0002:0000469e       ?SetMenu@CFrameWnd@@UAEHPAVCMenu@@@Z 0041569e f   mfc90ud:mfc90ud.dll
 0002:000046a4       ?OnCommand@CFrameWnd@@MAEHIJ@Z 004156a4 f   mfc90ud:mfc90ud.dll
 0002:000046aa       ?BeginModalState@CFrameWnd@@UAEXXZ 004156aa f   mfc90ud:mfc90ud.dll
 0002:000046b0       ?EndModalState@CFrameWnd@@UAEXXZ 004156b0 f   mfc90ud:mfc90ud.dll
 0002:000046b6       ?PreTranslateMessage@CFrameWnd@@UAEHPAUtagMSG@@@Z 004156b6 f   mfc90ud:mfc90ud.dll
 0002:000046bc       ?PostNcDestroy@CFrameWnd@@MAEXXZ 004156bc f   mfc90ud:mfc90ud.dll
 0002:000046c2       ?IsFrameWnd@CFrameWnd@@UBEHXZ 004156c2 f   mfc90ud:mfc90ud.dll
 0002:000046c8       ?Create@CFrameWnd@@UAEHPB_W0KABUtagRECT@@PAVCWnd@@0KPAUCCreateContext@@@Z 004156c8 f   mfc90ud:mfc90ud.dll
 0002:000046ce       ?LoadFrame@CFrameWnd@@UAEHIKPAVCWnd@@PAUCCreateContext@@@Z 004156ce f   mfc90ud:mfc90ud.dll
 0002:000046d4       ?GetActiveDocument@CFrameWnd@@UAEPAVCDocument@@XZ 004156d4 f   mfc90ud:mfc90ud.dll
 0002:000046da       ?GetActiveFrame@CFrameWnd@@UAEPAV1@XZ 004156da f   mfc90ud:mfc90ud.dll
 0002:000046e0       ?GetMessageString@CFrameWnd@@UBEXIAAV?$CStringT@_WV?$StrTraitMFC_DLL@_WV?$ChTraitsCRT@_W@ATL@@@@@ATL@@@Z 004156e0 f   mfc90ud:mfc90ud.dll
 0002:000046e6       ?RecalcLayout@CFrameWnd@@UAEXH@Z 004156e6 f   mfc90ud:mfc90ud.dll
 0002:000046ec       ?ActivateFrame@CFrameWnd@@UAEXH@Z 004156ec f   mfc90ud:mfc90ud.dll
 0002:000046f2       ?SetMenuBarVisibility@CFrameWnd@@UAEXK@Z 004156f2 f   mfc90ud:mfc90ud.dll
 0002:000046f8       ?GetMenuBarVisibility@CFrameWnd@@UBEKXZ 004156f8 f   mfc90ud:mfc90ud.dll
 0002:000046fe       ?SetMenuBarState@CFrameWnd@@UAEHK@Z 004156fe f   mfc90ud:mfc90ud.dll
 0002:00004704       ?GetMenuBarState@CFrameWnd@@UBEKXZ 00415704 f   mfc90ud:mfc90ud.dll
 0002:0000470a       ?OnSetPreviewMode@CFrameWnd@@UAEXHPAUCPrintPreviewState@@@Z 0041570a f   mfc90ud:mfc90ud.dll
 0002:00004710       ?GetMessageBar@CFrameWnd@@UAEPAVCWnd@@XZ 00415710 f   mfc90ud:mfc90ud.dll
 0002:00004716       ?NegotiateBorderSpace@CFrameWnd@@UAEHIPAUtagRECT@@@Z 00415716 f   mfc90ud:mfc90ud.dll
 0002:0000471c       ?OnCreateClient@CFrameWnd@@MAEHPAUtagCREATESTRUCTW@@PAUCCreateContext@@@Z 0041571c f   mfc90ud:mfc90ud.dll
 0002:00004722       ?OnUpdateFrameTitle@CFrameWnd@@UAEXH@Z 00415722 f   mfc90ud:mfc90ud.dll
 0002:00004728       ?OnUpdateFrameMenu@CFrameWnd@@UAEXPAUHMENU__@@@Z 00415728 f   mfc90ud:mfc90ud.dll
 0002:0000472e       ?GetDefaultAccelerator@CFrameWnd@@UAEPAUHACCEL__@@XZ 0041572e f   mfc90ud:mfc90ud.dll
 0002:00004734       ?DelayUpdateFrameMenu@CFrameWnd@@UAEXPAUHMENU__@@@Z 00415734 f   mfc90ud:mfc90ud.dll
 0002:0000473a       ?ExitHelpMode@CFrameWnd@@UAEXXZ 0041573a f   mfc90ud:mfc90ud.dll
 0002:00004740       ?OnShowMenuBar@CFrameWnd@@MAEXXZ 00415740 f   mfc90ud:mfc90ud.dll
 0002:00004746       ?OnHideMenuBar@CFrameWnd@@MAEXXZ 00415746 f   mfc90ud:mfc90ud.dll
 0002:0000474c       ??1CToolBar@@UAE@XZ        0041574c f   mfc90ud:mfc90ud.dll
 0002:00004752       ?DockControlBar@CFrameWnd@@QAEXPAVCControlBar@@IPBUtagRECT@@@Z 00415752 f   mfc90ud:mfc90ud.dll
 0002:00004758       ?EnableDocking@CFrameWnd@@QAEXK@Z 00415758 f   mfc90ud:mfc90ud.dll
 0002:0000475e       ?EnableDocking@CControlBar@@QAEXK@Z 0041575e f   mfc90ud:mfc90ud.dll
 0002:00004764       ?SetIndicators@CStatusBar@@QAEHPBIH@Z 00415764 f   mfc90ud:mfc90ud.dll
 0002:0000476a       ?LoadToolBar@CToolBar@@QAEHI@Z 0041576a f   mfc90ud:mfc90ud.dll
 0002:00004770       ?OnCreate@CFrameWnd@@IAEHPAUtagCREATESTRUCTW@@@Z 00415770 f   mfc90ud:mfc90ud.dll
 0002:00004776       ?PreCreateWindow@CFrameWnd@@MAEHAAUtagCREATESTRUCTW@@@Z 00415776 f   mfc90ud:mfc90ud.dll
 0002:0000477c       ?AssertValid@CFrameWnd@@UBEXXZ 0041577c f   mfc90ud:mfc90ud.dll
 0002:00004782       ?Dump@CFrameWnd@@UBEXAAVCDumpContext@@@Z 00415782 f   mfc90ud:mfc90ud.dll
 0002:00004790       ??_Estringdispid@CComTypeInfoHolder@ATL@@QAEPAXI@Z 00415790 f i mfcs90ud:nolib.obj
 0002:00004820       ??1stringdispid@CComTypeInfoHolder@ATL@@QAE@XZ 00415820 f i mfcs90ud:nolib.obj
 0002:00004840       ??1CComBSTR@ATL@@QAE@XZ    00415840 f i mfcs90ud:nolib.obj
 0002:000049a0       _wWinMainCRTStartup        004159a0 f   msvcrtd:wcrtexew.obj
 0002:00004dc0       _NtCurrentTeb              00415dc0 f i msvcrtd:wcrtexew.obj
 0002:00004eb0       __RTC_CheckEsp             00415eb0 f   msvcrtd:_stack_.obj
 0002:00004ee0       @_RTC_CheckStackVars@8     00415ee0 f   msvcrtd:_stack_.obj
 0002:00004f60       @_RTC_AllocaHelper@12      00415f60 f   msvcrtd:_stack_.obj
 0002:00004fa0       @_RTC_CheckStackVars2@12   00415fa0 f   msvcrtd:_stack_.obj
 0002:000050b0       __RTC_InitBase             004160b0 f   msvcrtd:_init_.obj
 0002:000050f0       __RTC_Shutdown             004160f0 f   msvcrtd:_init_.obj
 0002:00005110       ??0type_info@@AAE@ABV0@@Z  00416110 f   msvcrtd:ti_inst.obj
 0002:00005140       ??_Etype_info@@UAEPAXI@Z   00416140 f i msvcrtd:ti_inst.obj
 0002:000051d0       ??4type_info@@AAEAAV0@ABV0@@Z 004161d0 f   msvcrtd:ti_inst.obj
 0002:000051e6       ___CxxFrameHandler3        004161e6 f   msvcrtd:MSVCR90D.dll
 0002:000051f0       @__security_check_cookie@4 004161f0 f   msvcrtd:secchk.obj
 0002:00005210       __onexit                   00416210 f   msvcrtd:atonexit.obj
 0002:00005360       _atexit                    00416360 f   msvcrtd:atonexit.obj
 0002:00005390       ??_V@YAXPAX@Z              00416390 f   msvcrtd:MSVCR90D.dll
 0002:000053a0       ??_M@YGXPAXIHP6EX0@Z@Z     004163a0 f   msvcrtd:ehvecdtr.obj
 0002:00005480       ?__ArrayUnwind@@YGXPAXIHP6EX0@Z@Z 00416480 f   msvcrtd:ehvecdtr.obj
 0002:00005570       ?__CxxUnhandledExceptionFilter@@YGJPAU_EXCEPTION_POINTERS@@@Z 00416570 f   msvcrtd:unhandld.obj
 0002:000055f0       ___CxxSetUnhandledExceptionFilter 004165f0 f   msvcrtd:unhandld.obj
 0002:0000560a       __configthreadlocale       0041660a f   msvcrtd:MSVCR90D.dll
 0002:00005610       __setdefaultprecision      00416610 f   msvcrtd:fp8.obj
 0002:00005660       __invoke_watson_if_error   00416660 f i msvcrtd:fp8.obj
 0002:00005696       ___setusermatherr          00416696 f   msvcrtd:MSVCR90D.dll
 0002:000056a0       __matherr                  004166a0 f   msvcrtd:merr.obj
 0002:000056b0       __wsetargv                 004166b0 f   msvcrtd:wdllargv.obj
 0002:000056c0       __RTC_Initialize           004166c0 f   msvcrtd:_initsect_.obj
 0002:000056f0       __RTC_Terminate            004166f0 f   msvcrtd:_initsect_.obj
 0002:00005720       ___p__commode              00416720 f   msvcrtd:MSVCR90D.dll
 0002:00005726       ___p__fmode                00416726 f   msvcrtd:MSVCR90D.dll
 0002:0000572c       __encode_pointer           0041672c f   msvcrtd:MSVCR90D.dll
 0002:00005732       ___set_app_type            00416732 f   msvcrtd:MSVCR90D.dll
 0002:00005738       __amsg_exit                00416738 f   msvcrtd:MSVCR90D.dll
 0002:0000573e       ___wgetmainargs            0041673e f   msvcrtd:MSVCR90D.dll
 0002:00005750       ___security_init_cookie    00416750 f   msvcrtd:gs_support.obj
 0002:00005862       __exit                     00416862 f   msvcrtd:MSVCR90D.dll
 0002:00005868       __XcptFilter               00416868 f   msvcrtd:MSVCR90D.dll
 0002:0000586e       __cexit                    0041686e f   msvcrtd:MSVCR90D.dll
 0002:00005874       _exit                      00416874 f   msvcrtd:MSVCR90D.dll
 0002:0000587a       __CrtSetCheckCount         0041687a f   msvcrtd:MSVCR90D.dll
 0002:00005880       __ValidateImageBase        00416880 f   msvcrtd:pesect.obj
 0002:00005900       __FindPESection            00416900 f   msvcrtd:pesect.obj
 0002:000059a0       __IsNonwritableInCurrentImage 004169a0 f   msvcrtd:pesect.obj
 0002:00005af6       __CrtDbgReportW            00416af6 f   msvcrtd:MSVCR90D.dll
 0002:00005afc       __initterm                 00416afc f   msvcrtd:MSVCR90D.dll
 0002:00005b02       __initterm_e               00416b02 f   msvcrtd:MSVCR90D.dll
 0002:00005b10       __except_handler4          00416b10 f   msvcrtd:chandler4gs.obj
 0002:00005b50       _DebuggerKnownHandle       00416b50 f   msvcrtd:_error_.obj
 0002:00005c30       ?_RTC_Failure@@YAXPAXH@Z   00416c30 f   msvcrtd:_error_.obj
 0002:00006000       ?_RTC_StackFailure@@YAXPAXPBD@Z 00417000 f   msvcrtd:_error_.obj
 0002:00006140       ?_RTC_AllocaFailure@@YAXPAXPAU_RTC_ALLOCA_NODE@@H@Z 00417140 f   msvcrtd:_error_.obj
 0002:00006350       __RTC_UninitUse            00417350 f   msvcrtd:_error_.obj
 0002:00006480       __RTC_NumErrors            00417480 f   msvcrtd:_userapi_.obj
 0002:00006490       __RTC_GetErrDesc           00417490 f   msvcrtd:_userapi_.obj
 0002:000064b0       __RTC_SetErrorType         004174b0 f   msvcrtd:_userapi_.obj
 0002:000064e0       __RTC_SetErrorFunc         004174e0 f   msvcrtd:_userapi_.obj
 0002:00006510       __RTC_SetErrorFuncW        00417510 f   msvcrtd:_userapi_.obj
 0002:00006540       ?_RTC_GetErrorFunc@@YAP6AHHPBDH00ZZPBX@Z 00417540 f   msvcrtd:_userapi_.obj
 0002:00006550       ?_RTC_GetErrorFuncW@@YAP6AHHPB_WH00ZZPBX@Z 00417550 f   msvcrtd:_userapi_.obj
 0002:00006556       __CRT_RTC_INITW            00417556 f   msvcrtd:MSVCR90D.dll
 0002:00006560       ___report_gsfailure        00417560 f   msvcrtd:gs_report.obj
 0002:000066b2       __unlock                   004176b2 f   msvcrtd:MSVCR90D.dll
 0002:000066b8       ___dllonexit               004176b8 f   msvcrtd:MSVCR90D.dll
 0002:000066be       __lock                     004176be f   msvcrtd:MSVCR90D.dll
 0002:000066c4       __decode_pointer           004176c4 f   msvcrtd:MSVCR90D.dll
 0002:000066ca       ?terminate@@YAXXZ          004176ca f   msvcrtd:MSVCR90D.dll
 0002:000066d0       __controlfp_s              004176d0 f   msvcrtd:MSVCR90D.dll
 0002:000066d6       __invoke_watson            004176d6 f   msvcrtd:MSVCR90D.dll
 0002:000066dc       __except_handler4_common   004176dc f   msvcrtd:MSVCR90D.dll
 0002:000066f0       ?_RTC_GetSrcLine@@YAHPAEPA_WKPAH1K@Z 004176f0 f   msvcrtd:_pdblkup_.obj
 0002:00006cac       ??1type_info@@UAE@XZ       00417cac f   msvcrtd:MSVCR90D.dll
 0002:00006cac       ?_type_info_dtor_internal_method@type_info@@QAEXXZ 00417cac f   msvcrtd:MSVCR90D.dll
 0002:00006cb2       __crt_debugger_hook        00417cb2 f   msvcrtd:MSVCR90D.dll
 0002:00006cb8       _InterlockedExchange@8     00417cb8 f   kernel32:KERNEL32.dll
 0002:00006cbe       _Sleep@4                   00417cbe f   kernel32:KERNEL32.dll
 0002:00006cc4       _InterlockedCompareExchange@12 00417cc4 f   kernel32:KERNEL32.dll
 0002:00006cca       _GetStartupInfoW@4         00417cca f   kernel32:KERNEL32.dll
 0002:00006cd0       _SetUnhandledExceptionFilter@4 00417cd0 f   kernel32:KERNEL32.dll
 0002:00006cd6       _QueryPerformanceCounter@4 00417cd6 f   kernel32:KERNEL32.dll
 0002:00006cdc       _GetTickCount@0            00417cdc f   kernel32:KERNEL32.dll
 0002:00006ce2       _GetCurrentThreadId@0      00417ce2 f   kernel32:KERNEL32.dll
 0002:00006ce8       _GetCurrentProcessId@0     00417ce8 f   kernel32:KERNEL32.dll
 0002:00006cee       _GetSystemTimeAsFileTime@4 00417cee f   kernel32:KERNEL32.dll
 0002:00006cf4       _IsDebuggerPresent@0       00417cf4 f   kernel32:KERNEL32.dll
 0002:00006cfa       _RaiseException@16         00417cfa f   kernel32:KERNEL32.dll
 0002:00006d00       _DebugBreak@0              00417d00 f   kernel32:KERNEL32.dll
 0002:00006d06       _WideCharToMultiByte@32    00417d06 f   kernel32:KERNEL32.dll
 0002:00006d0c       _MultiByteToWideChar@24    00417d0c f   kernel32:KERNEL32.dll
 0002:00006d12       _lstrlenA@4                00417d12 f   kernel32:KERNEL32.dll
 0002:00006d18       _GetProcAddress@8          00417d18 f   kernel32:KERNEL32.dll
 0002:00006d1e       _LoadLibraryA@4            00417d1e f   kernel32:KERNEL32.dll
 0002:00006d24       _TerminateProcess@8        00417d24 f   kernel32:KERNEL32.dll
 0002:00006d2a       _GetCurrentProcess@0       00417d2a f   kernel32:KERNEL32.dll
 0002:00006d30       _UnhandledExceptionFilter@4 00417d30 f   kernel32:KERNEL32.dll
 0002:00006d36       _HeapFree@12               00417d36 f   kernel32:KERNEL32.dll
 0002:00006d3c       _HeapAlloc@12              00417d3c f   kernel32:KERNEL32.dll
 0002:00006d42       _GetProcessHeap@0          00417d42 f   kernel32:KERNEL32.dll
 0002:00006d48       _GetModuleFileNameW@12     00417d48 f   kernel32:KERNEL32.dll
 0002:00006d4e       _VirtualQuery@12           00417d4e f   kernel32:KERNEL32.dll
 0002:00006d54       _FreeLibrary@4             00417d54 f   kernel32:KERNEL32.dll
 0002:00006d5a       _SwapBuffers@4             00417d5a f   gdi32:GDI32.dll
 0002:00006d60       _SetPixelFormat@12         00417d60 f   gdi32:GDI32.dll
 0002:00006d66       _ChoosePixelFormat@8       00417d66 f   gdi32:GDI32.dll
 0002:00006d6c       _InitCommonControlsEx@4    00417d6c f   comctl32:COMCTL32.dll
 0002:00006d72       _SysFreeString@4           00417d72 f   oleaut32:OLEAUT32.dll
 0002:00006d80       ??0CSize@@QAE@XZ           00417d80 f   atlsd:atltypes.obj
 0002:00006da0       ??0CSize@@QAE@HH@Z         00417da0 f   atlsd:atltypes.obj
 0002:00006dd0       ??0CSize@@QAE@UtagSIZE@@@Z 00417dd0 f   atlsd:atltypes.obj
 0002:00006e00       ??0CSize@@QAE@UtagPOINT@@@Z 00417e00 f   atlsd:atltypes.obj
 0002:00006e30       ??0CSize@@QAE@K@Z          00417e30 f   atlsd:atltypes.obj
 0002:00006e80       ??8CSize@@QBEHUtagSIZE@@@Z 00417e80 f   atlsd:atltypes.obj
 0002:00006ed0       ??9CSize@@QBEHUtagSIZE@@@Z 00417ed0 f   atlsd:atltypes.obj
 0002:00006f20       ??YCSize@@QAEXUtagSIZE@@@Z 00417f20 f   atlsd:atltypes.obj
 0002:00006f60       ??ZCSize@@QAEXUtagSIZE@@@Z 00417f60 f   atlsd:atltypes.obj
 0002:00006fa0       ?SetSize@CSize@@QAEXHH@Z   00417fa0 f   atlsd:atltypes.obj
 0002:00006fd0       ??HCSize@@QBE?AV0@UtagSIZE@@@Z 00417fd0 f   atlsd:atltypes.obj
 0002:00007010       ??GCSize@@QBE?AV0@UtagSIZE@@@Z 00418010 f   atlsd:atltypes.obj
 0002:00007050       ??GCSize@@QBE?AV0@XZ       00418050 f   atlsd:atltypes.obj
 0002:00007090       ??HCSize@@QBE?AVCPoint@@UtagPOINT@@@Z 00418090 f   atlsd:atltypes.obj
 0002:000070d0       ??GCSize@@QBE?AVCPoint@@UtagPOINT@@@Z 004180d0 f   atlsd:atltypes.obj
 0002:00007110       ??HCSize@@QBE?AVCRect@@PBUtagRECT@@@Z 00418110 f   atlsd:atltypes.obj
 0002:00007170       ??GCSize@@QBE?AVCRect@@PBUtagRECT@@@Z 00418170 f   atlsd:atltypes.obj
 0002:000071d0       ??0CPoint@@QAE@XZ          004181d0 f   atlsd:atltypes.obj
 0002:000071f0       ??0CPoint@@QAE@HH@Z        004181f0 f   atlsd:atltypes.obj
 0002:00007220       ??0CPoint@@QAE@UtagPOINT@@@Z 00418220 f   atlsd:atltypes.obj
 0002:00007250       ??0CPoint@@QAE@UtagSIZE@@@Z 00418250 f   atlsd:atltypes.obj
 0002:00007280       ??0CPoint@@QAE@J@Z         00418280 f   atlsd:atltypes.obj
 0002:000072d0       ?Offset@CPoint@@QAEXHH@Z   004182d0 f   atlsd:atltypes.obj
 0002:00007310       ?Offset@CPoint@@QAEXUtagPOINT@@@Z 00418310 f   atlsd:atltypes.obj
 0002:00007350       ?Offset@CPoint@@QAEXUtagSIZE@@@Z 00418350 f   atlsd:atltypes.obj
 0002:00007390       ?SetPoint@CPoint@@QAEXHH@Z 00418390 f   atlsd:atltypes.obj
 0002:000073c0       ??8CPoint@@QBEHUtagPOINT@@@Z 004183c0 f   atlsd:atltypes.obj
 0002:00007410       ??9CPoint@@QBEHUtagPOINT@@@Z 00418410 f   atlsd:atltypes.obj
 0002:00007460       ??YCPoint@@QAEXUtagSIZE@@@Z 00418460 f   atlsd:atltypes.obj
 0002:000074a0       ??ZCPoint@@QAEXUtagSIZE@@@Z 004184a0 f   atlsd:atltypes.obj
 0002:000074e0       ??YCPoint@@QAEXUtagPOINT@@@Z 004184e0 f   atlsd:atltypes.obj
 0002:00007520       ??ZCPoint@@QAEXUtagPOINT@@@Z 00418520 f   atlsd:atltypes.obj
 0002:00007560       ??HCPoint@@QBE?AV0@UtagSIZE@@@Z 00418560 f   atlsd:atltypes.obj
 0002:000075a0       ??GCPoint@@QBE?AV0@UtagSIZE@@@Z 004185a0 f   atlsd:atltypes.obj
 0002:000075e0       ??GCPoint@@QBE?AV0@XZ      004185e0 f   atlsd:atltypes.obj
 0002:00007620       ??HCPoint@@QBE?AV0@UtagPOINT@@@Z 00418620 f   atlsd:atltypes.obj
 0002:00007660       ??GCPoint@@QBE?AVCSize@@UtagPOINT@@@Z 00418660 f   atlsd:atltypes.obj
 0002:000076a0       ??HCPoint@@QBE?AVCRect@@PBUtagRECT@@@Z 004186a0 f   atlsd:atltypes.obj
 0002:00007700       ??GCPoint@@QBE?AVCRect@@PBUtagRECT@@@Z 00418700 f   atlsd:atltypes.obj
 0002:00007760       ??0CRect@@QAE@XZ           00418760 f   atlsd:atltypes.obj
 0002:00007780       ??0CRect@@QAE@HHHH@Z       00418780 f   atlsd:atltypes.obj
 0002:000077d0       ??0CRect@@QAE@ABUtagRECT@@@Z 004187d0 f   atlsd:atltypes.obj
 0002:00007800       ??0CRect@@QAE@PBUtagRECT@@@Z 00418800 f   atlsd:atltypes.obj
 0002:00007830       ??0CRect@@QAE@UtagPOINT@@UtagSIZE@@@Z 00418830 f   atlsd:atltypes.obj
 0002:00007880       ??0CRect@@QAE@UtagPOINT@@0@Z 00418880 f   atlsd:atltypes.obj
 0002:000078d0       ?Width@CRect@@QBEHXZ       004188d0 f   atlsd:atltypes.obj
 0002:000078f0       ?Height@CRect@@QBEHXZ      004188f0 f   atlsd:atltypes.obj
 0002:00007910       ?Size@CRect@@QBE?AVCSize@@XZ 00418910 f   atlsd:atltypes.obj
 0002:00007950       ?TopLeft@CRect@@QAEAAVCPoint@@XZ 00418950 f   atlsd:atltypes.obj
 0002:00007970       ?BottomRight@CRect@@QAEAAVCPoint@@XZ 00418970 f   atlsd:atltypes.obj
 0002:00007990       ?TopLeft@CRect@@QBEABVCPoint@@XZ 00418990 f   atlsd:atltypes.obj
 0002:000079b0       ?BottomRight@CRect@@QBEABVCPoint@@XZ 004189b0 f   atlsd:atltypes.obj
 0002:000079d0       ?CenterPoint@CRect@@QBE?AVCPoint@@XZ 004189d0 f   atlsd:atltypes.obj
 0002:00007a20       ?SwapLeftRight@CRect@@QAEXXZ 00418a20 f   atlsd:atltypes.obj
 0002:00007a40       ?SwapLeftRight@CRect@@SGXPAUtagRECT@@@Z 00418a40 f   atlsd:atltypes.obj
 0002:00007a80       ??BCRect@@QAEPAUtagRECT@@XZ 00418a80 f   atlsd:atltypes.obj
 0002:00007aa0       ??BCRect@@QBEPBUtagRECT@@XZ 00418aa0 f   atlsd:atltypes.obj
 0002:00007ac0       ?IsRectEmpty@CRect@@QBEHXZ 00418ac0 f   atlsd:atltypes.obj
 0002:00007ae0       ?IsRectNull@CRect@@QBEHXZ  00418ae0 f   atlsd:atltypes.obj
 0002:00007b40       ?PtInRect@CRect@@QBEHUtagPOINT@@@Z 00418b40 f   atlsd:atltypes.obj
 0002:00007b70       ?SetRect@CRect@@QAEXHHHH@Z 00418b70 f   atlsd:atltypes.obj
 0002:00007bb0       ?SetRect@CRect@@QAEXUtagPOINT@@0@Z 00418bb0 f   atlsd:atltypes.obj
 0002:00007bf0       ?SetRectEmpty@CRect@@QAEXXZ 00418bf0 f   atlsd:atltypes.obj
 0002:00007c10       ?CopyRect@CRect@@QAEXPBUtagRECT@@@Z 00418c10 f   atlsd:atltypes.obj
 0002:00007c40       ?EqualRect@CRect@@QBEHPBUtagRECT@@@Z 00418c40 f   atlsd:atltypes.obj
 0002:00007c70       ?InflateRect@CRect@@QAEXHH@Z 00418c70 f   atlsd:atltypes.obj
 0002:00007ca0       ?InflateRect@CRect@@QAEXUtagSIZE@@@Z 00418ca0 f   atlsd:atltypes.obj
 0002:00007cd0       ?DeflateRect@CRect@@QAEXHH@Z 00418cd0 f   atlsd:atltypes.obj
 0002:00007d00       ?DeflateRect@CRect@@QAEXUtagSIZE@@@Z 00418d00 f   atlsd:atltypes.obj
 0002:00007d30       ?OffsetRect@CRect@@QAEXHH@Z 00418d30 f   atlsd:atltypes.obj
 0002:00007d60       ?OffsetRect@CRect@@QAEXUtagPOINT@@@Z 00418d60 f   atlsd:atltypes.obj
 0002:00007d90       ?OffsetRect@CRect@@QAEXUtagSIZE@@@Z 00418d90 f   atlsd:atltypes.obj
 0002:00007dc0       ?MoveToY@CRect@@QAEXH@Z    00418dc0 f   atlsd:atltypes.obj
 0002:00007e00       ?MoveToX@CRect@@QAEXH@Z    00418e00 f   atlsd:atltypes.obj
 0002:00007e40       ?MoveToXY@CRect@@QAEXHH@Z  00418e40 f   atlsd:atltypes.obj
 0002:00007e70       ?MoveToXY@CRect@@QAEXUtagPOINT@@@Z 00418e70 f   atlsd:atltypes.obj
 0002:00007ea0       ?IntersectRect@CRect@@QAEHPBUtagRECT@@0@Z 00418ea0 f   atlsd:atltypes.obj
 0002:00007ed0       ?UnionRect@CRect@@QAEHPBUtagRECT@@0@Z 00418ed0 f   atlsd:atltypes.obj
 0002:00007f00       ??4CRect@@QAEXABUtagRECT@@@Z 00418f00 f   atlsd:atltypes.obj
 0002:00007f30       ??8CRect@@QBEHABUtagRECT@@@Z 00418f30 f   atlsd:atltypes.obj
 0002:00007f60       ??9CRect@@QBEHABUtagRECT@@@Z 00418f60 f   atlsd:atltypes.obj
 0002:00007f90       ??YCRect@@QAEXUtagPOINT@@@Z 00418f90 f   atlsd:atltypes.obj
 0002:00007fc0       ??YCRect@@QAEXUtagSIZE@@@Z 00418fc0 f   atlsd:atltypes.obj
 0002:00007ff0       ??YCRect@@QAEXPBUtagRECT@@@Z 00418ff0 f   atlsd:atltypes.obj
 0002:00008020       ??ZCRect@@QAEXUtagPOINT@@@Z 00419020 f   atlsd:atltypes.obj
 0002:00008050       ??ZCRect@@QAEXUtagSIZE@@@Z 00419050 f   atlsd:atltypes.obj
 0002:00008080       ??ZCRect@@QAEXPBUtagRECT@@@Z 00419080 f   atlsd:atltypes.obj
 0002:000080b0       ??_4CRect@@QAEXABUtagRECT@@@Z 004190b0 f   atlsd:atltypes.obj
 0002:000080e0       ??_5CRect@@QAEXABUtagRECT@@@Z 004190e0 f   atlsd:atltypes.obj
 0002:00008110       ??HCRect@@QBE?AV0@UtagPOINT@@@Z 00419110 f   atlsd:atltypes.obj
 0002:00008180       ??GCRect@@QBE?AV0@UtagPOINT@@@Z 00419180 f   atlsd:atltypes.obj
 0002:00008200       ??HCRect@@QBE?AV0@UtagSIZE@@@Z 00419200 f   atlsd:atltypes.obj
 0002:00008270       ??GCRect@@QBE?AV0@UtagSIZE@@@Z 00419270 f   atlsd:atltypes.obj
 0002:000082f0       ??HCRect@@QBE?AV0@PBUtagRECT@@@Z 004192f0 f   atlsd:atltypes.obj
 0002:00008350       ??GCRect@@QBE?AV0@PBUtagRECT@@@Z 00419350 f   atlsd:atltypes.obj
 0002:000083b0       ??ICRect@@QBE?AV0@ABUtagRECT@@@Z 004193b0 f   atlsd:atltypes.obj
 0002:00008410       ??UCRect@@QBE?AV0@ABUtagRECT@@@Z 00419410 f   atlsd:atltypes.obj
 0002:00008470       ?SubtractRect@CRect@@QAEHPBUtagRECT@@0@Z 00419470 f   atlsd:atltypes.obj
 0002:000084a0       ?NormalizeRect@CRect@@QAEXXZ 004194a0 f   atlsd:atltypes.obj
 0002:00008520       ?InflateRect@CRect@@QAEXPBUtagRECT@@@Z 00419520 f   atlsd:atltypes.obj
 0002:00008590       ?InflateRect@CRect@@QAEXHHHH@Z 00419590 f   atlsd:atltypes.obj
 0002:000085f0       ?DeflateRect@CRect@@QAEXPBUtagRECT@@@Z 004195f0 f   atlsd:atltypes.obj
 0002:00008660       ?DeflateRect@CRect@@QAEXHHHH@Z 00419660 f   atlsd:atltypes.obj
 0002:000086c0       ?MulDiv@CRect@@QBE?AV1@HH@Z 004196c0 f   atlsd:atltypes.obj
 0002:00008750       ??0CAtlAllocator@@QAE@XZ   00419750 f i atlsd:Externs.obj
 0002:000087b0       ??0CTraceSnapshot@@QAE@XZ  004197b0 f i atlsd:Externs.obj
 0002:000087e0       ??0?$CSimpleArray@UCModuleInfo@CTraceSnapshot@@V?$CSimpleArrayEqualHelper@UCModuleInfo@CTraceSnapshot@@@ATL@@@ATL@@QAE@XZ 004197e0 f i atlsd:Externs.obj
 0002:00008820       ??0?$CSimpleArray@KV?$CSimpleArrayEqualHelper@K@ATL@@@ATL@@QAE@XZ 00419820 f i atlsd:Externs.obj
 0002:000089c0       ??0CAtlException@ATL@@QAE@J@Z 004199c0 f i atlsd:Externs.obj
 0002:000089e0       ?AtlCrtErrorCheck@ATL@@YAHH@Z 004199e0 f i atlsd:Externs.obj
 0002:00008ac0       ?AtlThrowImpl@ATL@@YGXJ@Z  00419ac0 f i atlsd:Externs.obj
 0002:00008b70       ??RCTraceFileAndLineInfo@ATL@@QBAXKIPBDZZ 00419b70 f i atlsd:Externs.obj
 0002:00008bd0       ?TraceV@CTrace@ATL@@QBAXPBDHKI0PAD@Z 00419bd0 f i atlsd:Externs.obj
 0002:00008c10       ?_AtlRaiseException@ATL@@YAXKK@Z 00419c10 f i atlsd:Externs.obj
 0002:00008c30       ??0CTrace@ATL@@AAE@P6AHHPBDH00ZZ@Z 00419c30 f i atlsd:Externs.obj
 0002:00008c80       ??1CAtlAllocator@@QAE@XZ   00419c80 f i atlsd:Externs.obj
 0002:00008cb0       ??1CTraceSnapshot@@QAE@XZ  00419cb0 f i atlsd:Externs.obj
 0002:00008ce0       ??1?$CSimpleArray@UCModuleInfo@CTraceSnapshot@@V?$CSimpleArrayEqualHelper@UCModuleInfo@CTraceSnapshot@@@ATL@@@ATL@@QAE@XZ 00419ce0 f i atlsd:Externs.obj
 0002:00008d00       ??1?$CSimpleArray@KV?$CSimpleArrayEqualHelper@K@ATL@@@ATL@@QAE@XZ 00419d00 f i atlsd:Externs.obj
 0002:00008d20       ?RemoveAll@?$CSimpleArray@UCModuleInfo@CTraceSnapshot@@V?$CSimpleArrayEqualHelper@UCModuleInfo@CTraceSnapshot@@@ATL@@@ATL@@QAEXXZ 00419d20 f i atlsd:Externs.obj
 0002:00008da0       ?RemoveAll@?$CSimpleArray@KV?$CSimpleArrayEqualHelper@K@ATL@@@ATL@@QAEXXZ 00419da0 f i atlsd:Externs.obj
 0002:00008e20       ??1CTrace@ATL@@AAE@XZ      00419e20 f i atlsd:Externs.obj
 0002:00008e40       ??0CTraceCategory@ATL@@QAE@PBDI@Z 00419e40 f i atlsd:atltrace.obj
 0002:00008ea0       ?ChangeCategory@CTrace@ATL@@QAE_NKIW4ATLTRACESTATUS@2@@Z 00419ea0 f i atlsd:atltrace.obj
 0002:00008ee0       ?RegisterCategory@CTrace@ATL@@QAEKPBD@Z 00419ee0 f i atlsd:atltrace.obj
 0002:00008f10       ?NotifyTool@ATL@@YGXXZ     00419f10 f   atlsd:AtlDebugAPI.obj
 0002:00008f60       _AtlTraceRegister@8        00419f60 f   atlsd:AtlDebugAPI.obj
 0002:00008ff0       _AtlTraceUnregister@4      00419ff0 f   atlsd:AtlDebugAPI.obj
 0002:00009030       _AtlTraceRegisterCategoryA@8 0041a030 f   atlsd:AtlDebugAPI.obj
 0002:00009090       _AtlTraceRegisterCategoryU@8 0041a090 f   atlsd:AtlDebugAPI.obj
 0002:000090f0       _AtlTraceModifyProcess@20  0041a0f0 f   atlsd:AtlDebugAPI.obj
 0002:000091c0       ?GetProcess@CAtlAllocator@@QBEPAVCAtlTraceProcess@@XZ 0041a1c0 f i atlsd:AtlDebugAPI.obj
 0002:000091e0       _AtlTraceModifyModule@16   0041a1e0 f   atlsd:AtlDebugAPI.obj
 0002:00009300       _AtlTraceModifyCategory@16 0041a300 f   atlsd:AtlDebugAPI.obj
 0002:000093e0       _AtlTraceGetProcess@20     0041a3e0 f   atlsd:AtlDebugAPI.obj
 0002:000094e0       _AtlTraceGetModule@16      0041a4e0 f   atlsd:AtlDebugAPI.obj
 0002:00009630       _AtlTraceGetCategory@16    0041a630 f   atlsd:AtlDebugAPI.obj
 0002:00009740       _AtlTraceGetUpdateEventNameA@4 0041a740 f   atlsd:AtlDebugAPI.obj
 0002:00009780       _AtlTraceGetUpdateEventNameA_s@8 0041a780 f   atlsd:AtlDebugAPI.obj
 0002:000097c0       _AtlTraceGetUpdateEventNameU@4 0041a7c0 f   atlsd:AtlDebugAPI.obj
 0002:00009830       _AtlTraceGetUpdateEventNameU_s@8 0041a830 f   atlsd:AtlDebugAPI.obj
 0002:000098a0       _AtlTraceVA                0041a8a0 f   atlsd:AtlDebugAPI.obj
 0002:00009c80       ?Name@CAtlTraceCategory@@QBEPB_WXZ 0041ac80 f i atlsd:AtlDebugAPI.obj
 0002:00009ca0       _AtlTraceVU                0041aca0 f   atlsd:AtlDebugAPI.obj
 0002:0000a0c0       _AtlTraceOpenProcess@4     0041b0c0 f   atlsd:AtlDebugAPI.obj
 0002:0000a1f0       ??_GCAtlAllocator@@QAEPAXI@Z 0041b1f0 f i atlsd:AtlDebugAPI.obj
 0002:0000a230       _AtlTraceCloseProcess@4    0041b230 f   atlsd:AtlDebugAPI.obj
 0002:0000a2e0       _AtlTraceSnapshotProcess@4 0041b2e0 f   atlsd:AtlDebugAPI.obj
 0002:0000a360       _AtlTraceGetProcessInfo@8  0041b360 f   atlsd:AtlDebugAPI.obj
 0002:0000a560       ?Path@CAtlTraceModuleInfo@@QBEPB_WXZ 0041b560 f i atlsd:AtlDebugAPI.obj
 0002:0000a580       ?Name@CAtlTraceModuleInfo@@QBEPB_WXZ 0041b580 f i atlsd:AtlDebugAPI.obj
 0002:0000a5a0       ?Id@CAtlTraceProcess@@QBEKXZ 0041b5a0 f i atlsd:AtlDebugAPI.obj
 0002:0000a5c0       _AtlTraceGetModuleInfo@12  0041b5c0 f   atlsd:AtlDebugAPI.obj
 0002:0000a7c0       _AtlTraceGetCategoryInfo@16 0041b7c0 f   atlsd:AtlDebugAPI.obj
 0002:0000ac20       ?CrtDbgReport@CAtlTraceModule@@QBEP6AHHPBDH00ZZXZ 0041bc20 f i atlsd:AtlDebugAPI.obj
 0002:0000ac40       ?_IsTracingEnabled@ATL@@YA_NKKI@Z 0041bc40 f   atlsd:AtlDebugAPI.obj
 0002:0000ac80       ?GetSize@?$CSimpleArray@UCModuleInfo@CTraceSnapshot@@V?$CSimpleArrayEqualHelper@UCModuleInfo@CTraceSnapshot@@@ATL@@@ATL@@QBEHXZ 0041bc80 f i atlsd:AtlDebugAPI.obj
 0002:0000aca0       ??A?$CSimpleArray@UCModuleInfo@CTraceSnapshot@@V?$CSimpleArrayEqualHelper@UCModuleInfo@CTraceSnapshot@@@ATL@@@ATL@@QAEAAUCModuleInfo@CTraceSnapshot@@H@Z 0041bca0 f i atlsd:AtlDebugAPI.obj
 0002:0000ad30       ?strcpy_s@Checked@ATL@@YAXPADIPBD@Z 0041bd30 f i atlsd:AtlDebugAPI.obj
 0002:0000ad60       ?wcscpy_s@Checked@ATL@@YAXPA_WIPB_W@Z 0041bd60 f i atlsd:AtlDebugAPI.obj
 0002:0000ad90       ??0?$CA2WEX@$0IA@@ATL@@QAE@PBD@Z 0041bd90 f i atlsd:AtlDebugAPI.obj
 0002:0000add0       ?_AtlGetConversionACP@ATL@@YGIXZ 0041bdd0 f i atlsd:AtlDebugAPI.obj
 0002:0000ade0       ??1?$CA2WEX@$0IA@@ATL@@QAE@XZ 0041bde0 f i atlsd:AtlDebugAPI.obj
 0002:0000ae10       ??B?$CA2WEX@$0IA@@ATL@@QBEPA_WXZ 0041be10 f i atlsd:AtlDebugAPI.obj
 0002:0000ae30       ?Init@?$CA2WEX@$0IA@@ATL@@AAEXPBDI@Z 0041be30 f i atlsd:AtlDebugAPI.obj
 0002:0000af70       ?AtlThrowLastWin32@ATL@@YGXXZ 0041bf70 f i atlsd:AtlDebugAPI.obj
 0002:0000afa0       _HRESULT_FROM_WIN32        0041bfa0 f i atlsd:AtlDebugAPI.obj
 0002:0000afe0       ??$AtlConvFreeMemory@_W@ATL@@YAXPA_W0H@Z 0041bfe0 f i atlsd:AtlDebugAPI.obj
 0002:0000b030       ??$AtlConvAllocMemory@_W@ATL@@YAXPAPA_WHPA_WH@Z 0041c030 f i atlsd:AtlDebugAPI.obj
 0002:0000b200       ?Init@CAtlAllocator@@QAE_NPBDK@Z 0041c200 f   atlsd:Allocate.obj
 0002:0000b600       ?IncRef@CAtlTraceProcess@@QAEIXZ 0041c600 f i atlsd:Allocate.obj
 0002:0000b640       ?Base@CAtlTraceProcess@@QBEPAXXZ 0041c640 f i atlsd:Allocate.obj
 0002:0000b660       ?Open@CAtlAllocator@@QAE_NPBD@Z 0041c660 f   atlsd:Allocate.obj
 0002:0000b7f0       ?Close@CAtlAllocator@@QAEX_N@Z 0041c7f0 f   atlsd:Allocate.obj
 0002:0000b870       ?DecRef@CAtlTraceProcess@@QAEIXZ 0041c870 f i atlsd:Allocate.obj
 0002:0000b8b0       ?GetModule@CAtlAllocator@@QBEPAVCAtlTraceModule@@H@Z 0041c8b0 f   atlsd:Allocate.obj
 0002:0000b960       ?ModuleCount@CAtlTraceProcess@@QBEHXZ 0041c960 f i atlsd:Allocate.obj
 0002:0000b980       ?GetCategory@CAtlAllocator@@QBEPAVCAtlTraceCategory@@H@Z 0041c980 f   atlsd:Allocate.obj
 0002:0000ba40       ?MaxSize@CAtlTraceProcess@@QBEKXZ 0041ca40 f i atlsd:Allocate.obj
 0002:0000ba60       ?CategoryCount@CAtlTraceProcess@@QBEHXZ 0041ca60 f i atlsd:Allocate.obj
 0002:0000ba80       ?GetCategoryCount@CAtlAllocator@@QBEHH@Z 0041ca80 f   atlsd:Allocate.obj
 0002:0000bb00       ?GetCategoryCount@CAtlAllocator@@QBEHABVCAtlTraceModule@@@Z 0041cb00 f   atlsd:Allocate.obj
 0002:0000bb70       ?GetModuleCount@CAtlAllocator@@QBEHXZ 0041cb70 f   atlsd:Allocate.obj
 0002:0000bbd0       ?FindModule@CAtlAllocator@@QBE_NPB_WPAI@Z 0041cbd0 f   atlsd:Allocate.obj
 0002:0000bc60       ?AddModule@CAtlAllocator@@QAEHPAUHINSTANCE__@@@Z 0041cc60 f   atlsd:Allocate.obj
 0002:0000be90       ?TryAllocate@CAtlTraceSettings@@QAE_NXZ 0041ce90 f i atlsd:Allocate.obj
 0002:0000bee0       ?MarkValid@CAtlTraceSettings@@QAEXJ@Z 0041cee0 f i atlsd:Allocate.obj
 0002:0000bf30       ?IncModuleCount@CAtlTraceProcess@@QAEXI@Z 0041cf30 f i atlsd:Allocate.obj
 0002:0000bf60       ?AddCategory@CAtlAllocator@@QAEHHPB_W@Z 0041cf60 f   atlsd:Allocate.obj
 0002:0000c200       ?TryAddRef@CAtlTraceSettings@@QAE_NXZ 0041d200 f i atlsd:Allocate.obj
 0002:0000c250       ?Release@CAtlTraceSettings@@QAEXXZ 0041d250 f i atlsd:Allocate.obj
 0002:0000c290       ?IncCategoryCount@CAtlTraceProcess@@QAEXI@Z 0041d290 f i atlsd:Allocate.obj
 0002:0000c2c0       ?RemoveModule@CAtlAllocator@@QAE_NH@Z 0041d2c0 f   atlsd:Allocate.obj
 0002:0000c380       ?CleanUp@CAtlAllocator@@QAEXXZ 0041d380 f   atlsd:Allocate.obj
 0002:0000c3a0       ?TakeSnapshot@CAtlAllocator@@QAEXXZ 0041d3a0 f   atlsd:Allocate.obj
 0002:0000c5d0       ?ReleaseSnapshot@CAtlAllocator@@QAEXXZ 0041d5d0 f   atlsd:Allocate.obj
 0002:0000c6d0       ?Add@?$CSimpleArray@UCModuleInfo@CTraceSnapshot@@V?$CSimpleArrayEqualHelper@UCModuleInfo@CTraceSnapshot@@@ATL@@@ATL@@QAEHABUCModuleInfo@CTraceSnapshot@@@Z 0041d6d0 f i atlsd:Allocate.obj
 0002:0000c840       ?GetSize@?$CSimpleArray@KV?$CSimpleArrayEqualHelper@K@ATL@@@ATL@@QBEHXZ 0041d840 f i atlsd:Allocate.obj
 0002:0000c860       ?Add@?$CSimpleArray@KV?$CSimpleArrayEqualHelper@K@ATL@@@ATL@@QAEHABK@Z 0041d860 f i atlsd:Allocate.obj
 0002:0000c9d0       ?RemoveAt@?$CSimpleArray@KV?$CSimpleArrayEqualHelper@K@ATL@@@ATL@@QAEHH@Z 0041d9d0 f i atlsd:Allocate.obj
 0002:0000cac0       ??A?$CSimpleArray@KV?$CSimpleArrayEqualHelper@K@ATL@@@ATL@@QAEAAKH@Z 0041dac0 f i atlsd:Allocate.obj
 0002:0000cb50       ?InternalSetAtIndex@?$CSimpleArray@UCModuleInfo@CTraceSnapshot@@V?$CSimpleArrayEqualHelper@UCModuleInfo@CTraceSnapshot@@@ATL@@@ATL@@QAEXHABUCModuleInfo@CTraceSnapshot@@@Z 0041db50 f i atlsd:Allocate.obj
 0002:0000cbb0       ?InternalSetAtIndex@?$CSimpleArray@KV?$CSimpleArrayEqualHelper@K@ATL@@@ATL@@QAEXHABK@Z 0041dbb0 f i atlsd:Allocate.obj
 0002:0000cc10       ??0Wrapper@?$CSimpleArray@UCModuleInfo@CTraceSnapshot@@V?$CSimpleArrayEqualHelper@UCModuleInfo@CTraceSnapshot@@@ATL@@@ATL@@QAE@ABUCModuleInfo@CTraceSnapshot@@@Z 0041dc10 f i atlsd:Allocate.obj
 0002:0000cc50       ??0Wrapper@?$CSimpleArray@KV?$CSimpleArrayEqualHelper@K@ATL@@@ATL@@QAE@ABK@Z 0041dc50 f i atlsd:Allocate.obj
 0002:0000cc80       ??$?2UCModuleInfo@CTraceSnapshot@@@Wrapper@?$CSimpleArray@UCModuleInfo@CTraceSnapshot@@V?$CSimpleArrayEqualHelper@UCModuleInfo@CTraceSnapshot@@@ATL@@@ATL@@SAPAXIPAUCModuleInfo@CTraceSnapshot@@@Z 0041dc80 f i atlsd:Allocate.obj
 0002:0000cc90       ??$?2K@Wrapper@?$CSimpleArray@KV?$CSimpleArrayEqualHelper@K@ATL@@@ATL@@SAPAXIPAK@Z 0041dc90 f i atlsd:Allocate.obj
 0002:0000cca0       ?memmove_s@Checked@ATL@@YAXPAXIPBXI@Z 0041dca0 f i atlsd:Allocate.obj
 0002:0000cce0       ??2@YAPAXIPAX@Z            0041dce0 f i atlsd:Allocate.obj
 0002:0000ccf0       ??0CAtlTraceModuleInfo@@QAE@XZ 0041dcf0 f   atlsd:AtlTraceModuleManager.obj
 0002:0000cd50       ?Reset@CAtlTraceModuleInfo@@QAEXPAUHINSTANCE__@@@Z 0041dd50 f   atlsd:AtlTraceModuleManager.obj
 0002:0000cee0       ??0CAtlTraceCategory@@QAE@XZ 0041dee0 f   atlsd:AtlTraceModuleManager.obj
 0002:0000cf20       ??0CAtlTraceSettings@@QAE@XZ 0041df20 f i atlsd:AtlTraceModuleManager.obj
 0002:0000cf70       ?Reset@CAtlTraceCategory@@QAEXPB_WJ@Z 0041df70 f   atlsd:AtlTraceModuleManager.obj
 0002:0000cfd0       ??0CAtlTraceModule@@QAE@XZ 0041dfd0 f   atlsd:AtlTraceModuleManager.obj
 0002:0000d010       ?CrtDbgReport@CAtlTraceModule@@QAEXP6AHHPBDH00ZZ@Z 0041e010 f   atlsd:AtlTraceModuleManager.obj
 0002:0000d050       ??0CAtlTraceProcess@@QAE@K@Z 0041e050 f   atlsd:AtlTraceModuleManager.obj
 0002:0000d160       ?GetNextCookie@CAtlTraceProcess@@QAEJXZ 0041e160 f   atlsd:AtlTraceModuleManager.obj
 0002:0000d184       ??2@YAPAXI@Z               0041e184 f   mfc90ud:mfc90ud.dll
 0002:0000d190       _wWinMain@16               0041e190 f   mfcs90ud:appmodul.obj
 0002:0000d1c0       ?AfxInitialize@@YGHHK@Z    0041e1c0 f   mfcs90ud:appmodul.obj
 0002:0000d216       __snprintf_s               0041e216 f   msvcrtd:MSVCR90D.dll
 0002:0000d21c       __errno                    0041e21c f   msvcrtd:MSVCR90D.dll
 0002:0000d222       __CxxThrowException@8      0041e222 f   msvcrtd:MSVCR90D.dll
 0002:0000d228       __CrtDbgReport             0041e228 f   msvcrtd:MSVCR90D.dll
 0002:0000d22e       _free                      0041e22e f   msvcrtd:MSVCR90D.dll
 0002:0000d234       _strcpy                    0041e234 f   msvcrtd:MSVCR90D.dll
 0002:0000d23a       _wcscpy                    0041e23a f   msvcrtd:MSVCR90D.dll
 0002:0000d240       __vsnprintf_s              0041e240 f   msvcrtd:MSVCR90D.dll
 0002:0000d246       _memset                    0041e246 f   msvcrtd:MSVCR90D.dll
 0002:0000d24c       __vsnwprintf_s             0041e24c f   msvcrtd:MSVCR90D.dll
 0002:0000d252       __snwprintf_s              0041e252 f   msvcrtd:MSVCR90D.dll
 0002:0000d258       _wcscpy_s                  0041e258 f   msvcrtd:MSVCR90D.dll
 0002:0000d25e       _wcsncpy_s                 0041e25e f   msvcrtd:MSVCR90D.dll
 0002:0000d264       _strcpy_s                  0041e264 f   msvcrtd:MSVCR90D.dll
 0002:0000d26a       _calloc                    0041e26a f   msvcrtd:MSVCR90D.dll
 0002:0000d270       __recalloc                 0041e270 f   msvcrtd:MSVCR90D.dll
 0002:0000d276       _memcmp                    0041e276 f   msvcrtd:MSVCR90D.dll
 0002:0000d27c       __wcsicmp                  0041e27c f   msvcrtd:MSVCR90D.dll
 0002:0000d282       _memmove_s                 0041e282 f   msvcrtd:MSVCR90D.dll
 0002:0000d288       _wcslen                    0041e288 f   msvcrtd:MSVCR90D.dll
 0002:0000d28e       _MulDiv@12                 0041e28e f   kernel32:KERNEL32.dll
 0002:0000d294       _CloseHandle@4             0041e294 f   kernel32:KERNEL32.dll
 0002:0000d29a       _SetEvent@4                0041e29a f   kernel32:KERNEL32.dll
 0002:0000d2a0       _OpenEventA@12             0041e2a0 f   kernel32:KERNEL32.dll
 0002:0000d2a6       _OutputDebugStringA@4      0041e2a6 f   kernel32:KERNEL32.dll
 0002:0000d2ac       _OutputDebugStringW@4      0041e2ac f   kernel32:KERNEL32.dll
 0002:0000d2b2       _GetLastError@0            0041e2b2 f   kernel32:KERNEL32.dll
 0002:0000d2b8       _VirtualAlloc@16           0041e2b8 f   kernel32:KERNEL32.dll
 0002:0000d2be       _UnmapViewOfFile@4         0041e2be f   kernel32:KERNEL32.dll
 0002:0000d2c4       _GetSystemInfo@4           0041e2c4 f   kernel32:KERNEL32.dll
 0002:0000d2ca       _MapViewOfFile@20          0041e2ca f   kernel32:KERNEL32.dll
 0002:0000d2d0       _CreateFileMappingA@24     0041e2d0 f   kernel32:KERNEL32.dll
 0002:0000d2d6       _GetCurrentThread@0        0041e2d6 f   kernel32:KERNEL32.dll
 0002:0000d2dc       _OpenFileMappingA@12       0041e2dc f   kernel32:KERNEL32.dll
 0002:0000d2e2       _InterlockedIncrement@4    0041e2e2 f   kernel32:KERNEL32.dll
 0002:0000d2e8       _InterlockedDecrement@4    0041e2e8 f   kernel32:KERNEL32.dll
 0002:0000d2ee       _CopyRect@8                0041e2ee f   user32:USER32.dll
 0002:0000d2f4       _IsRectEmpty@4             0041e2f4 f   user32:USER32.dll
 0002:0000d2fa       _PtInRect@12               0041e2fa f   user32:USER32.dll
 0002:0000d300       _SetRect@20                0041e300 f   user32:USER32.dll
 0002:0000d306       _SetRectEmpty@4            0041e306 f   user32:USER32.dll
 0002:0000d30c       _EqualRect@8               0041e30c f   user32:USER32.dll
 0002:0000d312       _InflateRect@12            0041e312 f   user32:USER32.dll
 0002:0000d318       _OffsetRect@12             0041e318 f   user32:USER32.dll
 0002:0000d31e       _IntersectRect@12          0041e31e f   user32:USER32.dll
 0002:0000d324       _UnionRect@12              0041e324 f   user32:USER32.dll
 0002:0000d32a       _SubtractRect@12           0041e32a f   user32:USER32.dll
 0002:0000d330       _SetThreadToken@8          0041e330 f   advapi32:ADVAPI32.dll
 0002:0000d336       _RevertToSelf@0            0041e336 f   advapi32:ADVAPI32.dll
 0002:0000d33c       _OpenThreadToken@16        0041e33c f   advapi32:ADVAPI32.dll
 0002:0000d342       ?AfxWinMain@@YGHPAUHINSTANCE__@@0PA_WH@Z 0041e342 f   mfc90ud:mfc90ud.dll
 0002:0000d348       ?AfxGetModuleState@@YGPAVAFX_MODULE_STATE@@XZ 0041e348 f   mfc90ud:mfc90ud.dll
 0003:00000000       ___xc_a                    00423000     msvcrtd:cinitexe.obj
 0003:000005b4       ___xc_z                    004235b4     msvcrtd:cinitexe.obj
 0003:000006b8       ___xi_a                    004236b8     msvcrtd:cinitexe.obj
 0003:000009c4       ___xi_z                    004239c4     msvcrtd:cinitexe.obj
 0003:00000bb4       ??_7ClengnanApp@@6B@       00423bb4     lengnan.obj
 0003:00000ca0       ??_C@_0EI@MFEMNJAL@d?3?2my?5documents?2visual?5studio?520@ 00423ca0     lengnan.obj
 0003:00000cf8       ??_C@_1CA@KINOLAIL@?$FO?$JEu?$CIz?$AL?$FO?$IPT?$BB?$FL?$PMu?$BPb?$BAv?$IEg?0W0?$FO?$JEu?$CIz?$AL?$FO?$IP?$AA?$AA@ 00423cf8     lengnan.obj
 0003:00000d24       ??_7CAboutDlg@@6B@         00423d24     lengnan.obj
 0003:00000edc       ??_C@_0M@MHFGDNLH@ClengnanDoc?$AA@ 00423edc     lengnanDoc.obj
 0003:00000eec       ?classClengnanDoc@ClengnanDoc@@2UCRuntimeClass@@B 00423eec     lengnanDoc.obj
 0003:00000f38       ??_C@_0EL@MAEGAEM@d?3?2my?5documents?2visual?5studio?520@ 00423f38     lengnanDoc.obj
 0003:00000f9c       ??_7ClengnanDoc@@6B@       00423f9c     lengnanDoc.obj
 0003:0000107c       ??_C@_0N@OHKHIKP@ClengnanView?$AA@ 0042407c     lengnanView.obj
 0003:0000108c       ?classClengnanView@ClengnanView@@2UCRuntimeClass@@B 0042408c     lengnanView.obj
 0003:000011a0       ??_C@_0EM@LOJOBLNB@d?3?2my?5documents?2visual?5studio?520@ 004241a0     lengnanView.obj
 0003:00001204       ??_7ClengnanView@@6B@      00424204     lengnanView.obj
 0003:000013ec       ??_C@_1DC@DIHIEHCC@?$AAw?$AAg?$AAl?$AAC?$AAr?$AAe?$AAa?$AAt?$AAe?$AAC?$AAo?$AAn?$AAt?$AAe?$AAx?$AAt?$AA?5?$AAf?$AAa?$AAi?$AAl?$AAe?$AAd?$AA?4?$AA?$AA@ 004243ec     lengnanView.obj
 0003:00001428       ??_C@_1CO@FMOGJHBF@?$AAw?$AAg?$AAl?$AAM?$AAa?$AAk?$AAe?$AAC?$AAu?$AAr?$AAr?$AAe?$AAn?$AAt?$AA?5?$AAf?$AAa?$AAi?$AAl?$AAe?$AAd?$AA?4?$AA?$AA@ 00424428     lengnanView.obj
 0003:00001460       __real@4046800000000000    00424460     lengnanView.obj
 0003:00001470       __real@3f847ae140000000    00424470     lengnanView.obj
 0003:00001480       __real@4059000000000000    00424480     lengnanView.obj
 0003:0000148c       ??_C@_1BI@FIOILOHL@?$AAS?$AAi?$AAz?$AAe?$AA?5?$AAe?$AAr?$AAr?$AAo?$AAr?$AA?$CB?$AA?$AA@ 0042448c     lengnanView.obj
 0003:000014a8       __real@3ff0000000000000    004244a8     lengnanView.obj
 0003:000014b4       __real@00000000            004244b4     lengnanView.obj
 0003:000014b8       ??_C@_1DG@CFAKKLBM@?$AAE?$AAr?$AAr?$AAo?$AAr?$AA?5?$AAS?$AAe?$AAt?$AAt?$AAi?$AAn?$AAg?$AA?5?$AAP?$AAi?$AAx?$AAe?$AAl?$AAF?$AAo?$AAr?$AAm?$AAa?$AAt?$AA?$CB?$AA?$AA@ 004244b8     lengnanView.obj
 0003:000014f8       ??_C@_1CI@BKBKDHNF@?$AAE?$AAr?$AAr?$AAo?$AAr?$AA?5?$AAO?$AAb?$AAt?$AAa?$AAi?$AAn?$AAi?$AAn?$AAg?$AA?5?$AAD?$AAC?$AA?$CB?$AA?$AA@ 004244f8     lengnanView.obj
 0003:00001528       ??_C@_0L@GOKPKJAL@CMainFrame?$AA@ 00424528     MainFrm.obj
 0003:00001538       ?classCMainFrame@CMainFrame@@2UCRuntimeClass@@B 00424538     MainFrm.obj
 0003:000015a0       ??_C@_0EI@KDAIKEIM@d?3?2my?5documents?2visual?5studio?520@ 004245a0     MainFrm.obj
 0003:000015fc       ??_7CMainFrame@@6B@        004245fc     MainFrm.obj
 0003:000017ec       ??_C@_1BC@KJCAMNMA@g?$CK?$IA?$PNR?$BL?$FO?zr?$LG?$GA?$ABh?$AP?$AA?6?$AA?$AA@ 004247ec     MainFrm.obj
 0003:00001804       ??_C@_15GANGMFKL@?$AA?$CF?$AAs?$AA?$AA@ 00424804     MainFrm.obj
 0003:0000180c       ??_C@_1BC@MCGAILAI@g?$CK?$IA?$PNR?$BL?$FO?z?$FN?eQwh?$AP?$AA?6?$AA?$AA@ 0042480c     MainFrm.obj
 0003:00001824       ??_C@_1CK@NMKILLLB@?$AAI?$AAn?$AAv?$AAa?$AAl?$AAi?$AAd?$AA?5?$AAD?$AAa?$AAt?$AAe?$AAT?$AAi?$AAm?$AAe?$AAS?$AAp?$AAa?$AAn?$AA?$AA@ 00424824     stdafx.obj
 0003:00001858       ??_C@_1CC@FFBCNGIJ@?$AAI?$AAn?$AAv?$AAa?$AAl?$AAi?$AAd?$AA?5?$AAD?$AAa?$AAt?$AAe?$AAT?$AAi?$AAm?$AAe?$AA?$AA@ 00424858     stdafx.obj
 0003:00001880       ?_Min@?$AtlLimits@H@ATL@@2HB 00424880     stdafx.obj
 0003:00001884       ?_Max@?$AtlLimits@H@ATL@@2HB 00424884     stdafx.obj
 0003:00001888       ?_Min@?$AtlLimits@I@ATL@@2IB 00424888     stdafx.obj
 0003:0000188c       ?_Max@?$AtlLimits@I@ATL@@2IB 0042488c     stdafx.obj
 0003:00001890       ?_Min@?$AtlLimits@J@ATL@@2JB 00424890     stdafx.obj
 0003:00001894       ?_Max@?$AtlLimits@J@ATL@@2JB 00424894     stdafx.obj
 0003:00001898       ?_Min@?$AtlLimits@K@ATL@@2KB 00424898     stdafx.obj
 0003:0000189c       ?_Max@?$AtlLimits@K@ATL@@2KB 0042489c     stdafx.obj
 0003:000018a0       ?_Min@?$AtlLimits@_J@ATL@@2_JB 004248a0     stdafx.obj
 0003:000018b0       ?_Max@?$AtlLimits@_J@ATL@@2_JB 004248b0     stdafx.obj
 0003:000018c0       ?_Min@?$AtlLimits@_K@ATL@@2_KB 004248c0     stdafx.obj
 0003:000018d0       ?_Max@?$AtlLimits@_K@ATL@@2_KB 004248d0     stdafx.obj
 0003:000018dc       ?VT@?$CVarTypeInfo@D@ATL@@2GB 004248dc     stdafx.obj
 0003:000018e0       ?pmField@?$CVarTypeInfo@D@ATL@@2QQtagVARIANT@@DQ3@ 004248e0     stdafx.obj
 0003:000018e4       ?VT@?$CVarTypeInfo@E@ATL@@2GB 004248e4     stdafx.obj
 0003:000018e8       ?pmField@?$CVarTypeInfo@E@ATL@@2QQtagVARIANT@@EQ3@ 004248e8     stdafx.obj
 0003:000018ec       ?VT@?$CVarTypeInfo@PAD@ATL@@2GB 004248ec     stdafx.obj
 0003:000018f0       ?pmField@?$CVarTypeInfo@PAD@ATL@@2QQtagVARIANT@@PADQ3@ 004248f0     stdafx.obj
 0003:000018f4       ?VT@?$CVarTypeInfo@PAE@ATL@@2GB 004248f4     stdafx.obj
 0003:000018f8       ?pmField@?$CVarTypeInfo@PAE@ATL@@2QQtagVARIANT@@PAEQ3@ 004248f8     stdafx.obj
 0003:000018fc       ?VT@?$CVarTypeInfo@F@ATL@@2GB 004248fc     stdafx.obj
 0003:00001900       ?pmField@?$CVarTypeInfo@F@ATL@@2QQtagVARIANT@@FQ3@ 00424900     stdafx.obj
 0003:00001904       ?VT@?$CVarTypeInfo@PAF@ATL@@2GB 00424904     stdafx.obj
 0003:00001908       ?pmField@?$CVarTypeInfo@PAF@ATL@@2QQtagVARIANT@@PAFQ3@ 00424908     stdafx.obj
 0003:0000190c       ?VT@?$CVarTypeInfo@G@ATL@@2GB 0042490c     stdafx.obj
 0003:00001910       ?pmField@?$CVarTypeInfo@G@ATL@@2QQtagVARIANT@@GQ3@ 00424910     stdafx.obj
 0003:00001914       ?VT@?$CVarTypeInfo@PAG@ATL@@2GB 00424914     stdafx.obj
 0003:00001918       ?pmField@?$CVarTypeInfo@PAG@ATL@@2QQtagVARIANT@@PAGQ3@ 00424918     stdafx.obj
 0003:0000191c       ?VT@?$CVarTypeInfo@H@ATL@@2GB 0042491c     stdafx.obj
 0003:00001920       ?pmField@?$CVarTypeInfo@H@ATL@@2QQtagVARIANT@@HQ3@ 00424920     stdafx.obj
 0003:00001924       ?VT@?$CVarTypeInfo@PAH@ATL@@2GB 00424924     stdafx.obj
 0003:00001928       ?pmField@?$CVarTypeInfo@PAH@ATL@@2QQtagVARIANT@@PAHQ3@ 00424928     stdafx.obj
 0003:0000192c       ?VT@?$CVarTypeInfo@I@ATL@@2GB 0042492c     stdafx.obj
 0003:00001930       ?pmField@?$CVarTypeInfo@I@ATL@@2QQtagVARIANT@@IQ3@ 00424930     stdafx.obj
 0003:00001934       ?VT@?$CVarTypeInfo@PAI@ATL@@2GB 00424934     stdafx.obj
 0003:00001938       ?pmField@?$CVarTypeInfo@PAI@ATL@@2QQtagVARIANT@@PAIQ3@ 00424938     stdafx.obj
 0003:0000193c       ?VT@?$CVarTypeInfo@J@ATL@@2GB 0042493c     stdafx.obj
 0003:00001940       ?pmField@?$CVarTypeInfo@J@ATL@@2QQtagVARIANT@@JQ3@ 00424940     stdafx.obj
 0003:00001944       ?VT@?$CVarTypeInfo@PAJ@ATL@@2GB 00424944     stdafx.obj
 0003:00001948       ?pmField@?$CVarTypeInfo@PAJ@ATL@@2QQtagVARIANT@@PAJQ3@ 00424948     stdafx.obj
 0003:0000194c       ?VT@?$CVarTypeInfo@K@ATL@@2GB 0042494c     stdafx.obj
 0003:00001950       ?pmField@?$CVarTypeInfo@K@ATL@@2QQtagVARIANT@@KQ3@ 00424950     stdafx.obj
 0003:00001954       ?VT@?$CVarTypeInfo@PAK@ATL@@2GB 00424954     stdafx.obj
 0003:00001958       ?pmField@?$CVarTypeInfo@PAK@ATL@@2QQtagVARIANT@@PAKQ3@ 00424958     stdafx.obj
 0003:0000195c       ?VT@?$CVarTypeInfo@_J@ATL@@2GB 0042495c     stdafx.obj
 0003:00001960       ?pmField@?$CVarTypeInfo@_J@ATL@@2QQtagVARIANT@@_JQ3@ 00424960     stdafx.obj
 0003:00001964       ?VT@?$CVarTypeInfo@PA_J@ATL@@2GB 00424964     stdafx.obj
 0003:00001968       ?pmField@?$CVarTypeInfo@PA_J@ATL@@2QQtagVARIANT@@PA_JQ3@ 00424968     stdafx.obj
 0003:0000196c       ?VT@?$CVarTypeInfo@_K@ATL@@2GB 0042496c     stdafx.obj
 0003:00001970       ?pmField@?$CVarTypeInfo@_K@ATL@@2QQtagVARIANT@@_KQ3@ 00424970     stdafx.obj
 0003:00001974       ?VT@?$CVarTypeInfo@PA_K@ATL@@2GB 00424974     stdafx.obj
 0003:00001978       ?pmField@?$CVarTypeInfo@PA_K@ATL@@2QQtagVARIANT@@PA_KQ3@ 00424978     stdafx.obj
 0003:0000197c       ?VT@?$CVarTypeInfo@M@ATL@@2GB 0042497c     stdafx.obj
 0003:00001980       ?pmField@?$CVarTypeInfo@M@ATL@@2QQtagVARIANT@@MQ3@ 00424980     stdafx.obj
 0003:00001984       ?VT@?$CVarTypeInfo@PAM@ATL@@2GB 00424984     stdafx.obj
 0003:00001988       ?pmField@?$CVarTypeInfo@PAM@ATL@@2QQtagVARIANT@@PAMQ3@ 00424988     stdafx.obj
 0003:0000198c       ?VT@?$CVarTypeInfo@N@ATL@@2GB 0042498c     stdafx.obj
 0003:00001990       ?pmField@?$CVarTypeInfo@N@ATL@@2QQtagVARIANT@@NQ3@ 00424990     stdafx.obj
 0003:00001994       ?VT@?$CVarTypeInfo@PAN@ATL@@2GB 00424994     stdafx.obj
 0003:00001998       ?pmField@?$CVarTypeInfo@PAN@ATL@@2QQtagVARIANT@@PANQ3@ 00424998     stdafx.obj
 0003:0000199c       ?VT@?$CVarTypeInfo@UtagVARIANT@@@ATL@@2GB 0042499c     stdafx.obj
 0003:000019a0       ?VT@?$CVarTypeInfo@PA_W@ATL@@2GB 004249a0     stdafx.obj
 0003:000019a4       ?pmField@?$CVarTypeInfo@PA_W@ATL@@2QQtagVARIANT@@PA_WQ3@ 004249a4     stdafx.obj
 0003:000019a8       ?VT@?$CVarTypeInfo@PAPA_W@ATL@@2GB 004249a8     stdafx.obj
 0003:000019ac       ?pmField@?$CVarTypeInfo@PAPA_W@ATL@@2QQtagVARIANT@@PAPA_WQ3@ 004249ac     stdafx.obj
 0003:000019b0       ?VT@?$CVarTypeInfo@PAUIUnknown@@@ATL@@2GB 004249b0     stdafx.obj
 0003:000019b4       ?pmField@?$CVarTypeInfo@PAUIUnknown@@@ATL@@2QQtagVARIANT@@PAUIUnknown@@Q3@ 004249b4     stdafx.obj
 0003:000019b8       ?VT@?$CVarTypeInfo@PAPAUIUnknown@@@ATL@@2GB 004249b8     stdafx.obj
 0003:000019bc       ?pmField@?$CVarTypeInfo@PAPAUIUnknown@@@ATL@@2QQtagVARIANT@@PAPAUIUnknown@@Q3@ 004249bc     stdafx.obj
 0003:000019c0       ?VT@?$CVarTypeInfo@PAUIDispatch@@@ATL@@2GB 004249c0     stdafx.obj
 0003:000019c4       ?pmField@?$CVarTypeInfo@PAUIDispatch@@@ATL@@2QQtagVARIANT@@PAUIDispatch@@Q3@ 004249c4     stdafx.obj
 0003:000019c8       ?VT@?$CVarTypeInfo@PAPAUIDispatch@@@ATL@@2GB 004249c8     stdafx.obj
 0003:000019cc       ?pmField@?$CVarTypeInfo@PAPAUIDispatch@@@ATL@@2QQtagVARIANT@@PAPAUIDispatch@@Q3@ 004249cc     stdafx.obj
 0003:000019d0       ?VT@?$CVarTypeInfo@TtagCY@@@ATL@@2GB 004249d0     stdafx.obj
 0003:000019d4       ?pmField@?$CVarTypeInfo@TtagCY@@@ATL@@2QQtagVARIANT@@TtagCY@@Q3@ 004249d4     stdafx.obj
 0003:000019d8       ?VT@?$CVarTypeInfo@PATtagCY@@@ATL@@2GB 004249d8     stdafx.obj
 0003:000019dc       ?pmField@?$CVarTypeInfo@PATtagCY@@@ATL@@2QQtagVARIANT@@PATtagCY@@Q3@ 004249dc     stdafx.obj
 0003:000019e0       ?c_bIsMFCDLLTraits@?$_MFCDLLTraitsCheck@DV?$StrTraitMFC_DLL@DV?$ChTraitsCRT@D@ATL@@@@@_CSTRING_IMPL_@ATL@@2_NB 004249e0     stdafx.obj
 0003:000019e1       ?c_bIsMFCDLLTraits@?$_MFCDLLTraitsCheck@_WV?$StrTraitMFC_DLL@_WV?$ChTraitsCRT@_W@ATL@@@@@_CSTRING_IMPL_@ATL@@2_NB 004249e1     stdafx.obj
 0003:000019e4       ?generic@CArchiveException@@2HB 004249e4     stdafx.obj
 0003:000019e8       ?generic@CFileException@@2HB 004249e8     stdafx.obj
 0003:000019f0       ?Millisecond@CFileTime@ATL@@2_KB 004249f0     stdafx.obj
 0003:00001a00       ?Second@CFileTime@ATL@@2_KB 00424a00     stdafx.obj
 0003:00001a10       ?Minute@CFileTime@ATL@@2_KB 00424a10     stdafx.obj
 0003:00001a20       ?Hour@CFileTime@ATL@@2_KB  00424a20     stdafx.obj
 0003:00001a30       ?Day@CFileTime@ATL@@2_KB   00424a30     stdafx.obj
 0003:00001a40       ?Week@CFileTime@ATL@@2_KB  00424a40     stdafx.obj
 0003:00001a4c       ?szInvalidDateTime@ATL@@3QB_WB 00424a4c     stdafx.obj
 0003:00001a50       ?szInvalidDateTimeSpan@ATL@@3QB_WB 00424a50     stdafx.obj
 0003:00001a54       ?CLSID_WinFormsControl@@3U_GUID@@B 00424a54     stdafx.obj
 0003:00001a6c       ??_7Thank_you@Define_the_symbol__ATL_MIXED@@6B@ 00424a6c     stdafx.obj
 0003:00001a74       ??_C@_1BA@JIHHIEDE@?$AAT?$AAy?$AAp?$AAe?$AAL?$AAi?$AAb?$AA?$AA@ 00424a74     mfcs90ud:nolib.obj
 0003:00001a88       ??_C@_1BC@EAHCMADO@?$AAS?$AAo?$AAf?$AAt?$AAw?$AAa?$AAr?$AAe?$AA?$AA@ 00424a88     mfcs90ud:nolib.obj
 0003:00001aa0       ??_C@_1O@GBFINDKL@?$AAS?$AAY?$AAS?$AAT?$AAE?$AAM?$AA?$AA@ 00424aa0     mfcs90ud:nolib.obj
 0003:00001ab0       ??_C@_1BC@IBECJAAI@?$AAS?$AAE?$AAC?$AAU?$AAR?$AAI?$AAT?$AAY?$AA?$AA@ 00424ab0     mfcs90ud:nolib.obj
 0003:00001ac8       ??_C@_17OMAOINJK@?$AAS?$AAA?$AAM?$AA?$AA@ 00424ac8     mfcs90ud:nolib.obj
 0003:00001ad4       ??_C@_19HLLLM@?$AAM?$AAi?$AAm?$AAe?$AA?$AA@ 00424ad4     mfcs90ud:nolib.obj
 0003:00001ae0       ??_C@_1BC@MAICEHGI@?$AAH?$AAa?$AAr?$AAd?$AAw?$AAa?$AAr?$AAe?$AA?$AA@ 00424ae0     mfcs90ud:nolib.obj
 0003:00001af8       ??_C@_1BE@EKPAFMCP@?$AAI?$AAn?$AAt?$AAe?$AAr?$AAf?$AAa?$AAc?$AAe?$AA?$AA@ 00424af8     mfcs90ud:nolib.obj
 0003:00001b10       ??_C@_1BC@NKMMNMGL@?$AAF?$AAi?$AAl?$AAe?$AAT?$AAy?$AAp?$AAe?$AA?$AA@ 00424b10     mfcs90ud:nolib.obj
 0003:00001b28       ??_C@_1CK@OEKPKBNA@?$AAC?$AAo?$AAm?$AAp?$AAo?$AAn?$AAe?$AAn?$AAt?$AA?5?$AAC?$AAa?$AAt?$AAe?$AAg?$AAo?$AAr?$AAi?$AAe?$AAs?$AA?$AA@ 00424b28     mfcs90ud:nolib.obj
 0003:00001b5c       ??_C@_1M@KANJNLFF@?$AAC?$AAL?$AAS?$AAI?$AAD?$AA?$AA@ 00424b5c     mfcs90ud:nolib.obj
 0003:00001b6c       ??_C@_1M@EJNEECMJ@?$AAA?$AAp?$AAp?$AAI?$AAD?$AA?$AA@ 00424b6c     mfcs90ud:nolib.obj
 0003:00001b7c       ??_C@_1O@JDLOHAN@?$AAD?$AAe?$AAl?$AAe?$AAt?$AAe?$AA?$AA@ 00424b7c     mfcs90ud:nolib.obj
 0003:00001b8c       ??_C@_1BC@GCKHIPE@?$AAN?$AAo?$AAR?$AAe?$AAm?$AAo?$AAv?$AAe?$AA?$AA@ 00424b8c     mfcs90ud:nolib.obj
 0003:00001ba4       ??_C@_1BI@JFAIJMHL@?$AAF?$AAo?$AAr?$AAc?$AAe?$AAR?$AAe?$AAm?$AAo?$AAv?$AAe?$AA?$AA@ 00424ba4     mfcs90ud:nolib.obj
 0003:00001bc0       ??_C@_17LLMMEOJD@?$AAV?$AAa?$AAl?$AA?$AA@ 00424bc0     mfcs90ud:nolib.obj
 0003:00001bcc       ??_C@_13OPKGLAFF@?$AAB?$AA?$AA@ 00424bcc     mfcs90ud:nolib.obj
 0003:00001bd0       ??_C@_13MKMNOPIJ@?$AAD?$AA?$AA@ 00424bd0     mfcs90ud:nolib.obj
 0003:00001bd4       ??_C@_13LHMFKAAD@?$AAM?$AA?$AA@ 00424bd4     mfcs90ud:nolib.obj
 0003:00001bd8       ??_C@_13HADIAKP@?$AAS?$AA?$AA@ 00424bd8     mfcs90ud:nolib.obj
 0003:00001bdc       _LIBID_ATLLib              00424bdc     mfcs90ud:nolib.obj
 0003:00001bf0       _CLSID_Registrar           00424bf0     mfcs90ud:nolib.obj
 0003:00001c04       _IID_IRegistrar            00424c04     mfcs90ud:nolib.obj
 0003:00001c18       _IID_IAxWinHostWindow      00424c18     mfcs90ud:nolib.obj
 0003:00001c2c       _IID_IAxWinAmbientDispatch 00424c2c     mfcs90ud:nolib.obj
 0003:00001c40       _IID_IInternalConnection   00424c40     mfcs90ud:nolib.obj
 0003:00001c54       _IID_IDocHostUIHandlerDispatch 00424c54     mfcs90ud:nolib.obj
 0003:00001c68       _IID_IAxWinHostWindowLic   00424c68     mfcs90ud:nolib.obj
 0003:00001c7c       _IID_IAxWinAmbientDispatchEx 00424c7c     mfcs90ud:nolib.obj
 0003:00001cb8       ?MAX_VALUE@CRegParser@ATL@@1HB 00424cb8     mfcs90ud:nolib.obj
 0003:00001cbc       ?MAX_TYPE@CRegParser@ATL@@1HB 00424cbc     mfcs90ud:nolib.obj
 0003:00001cc0       ?rgszNeverDelete@CRegParser@ATL@@1QBQB_WB 00424cc0     mfcs90ud:nolib.obj
 0003:00001cfc       ?cbNeverDelete@CRegParser@ATL@@1HB 00424cfc     mfcs90ud:nolib.obj
 0003:00001d28       ??_C@_1GA@EHAKPACL@?$AAf?$AA?3?$AA?2?$AAd?$AAd?$AA?2?$AAv?$AAc?$AAt?$AAo?$AAo?$AAl?$AAs?$AA?2?$AAc?$AAr?$AAt?$AA_?$AAb?$AAl?$AAd?$AA?2?$AAs?$AAe?$AAl?$AAf?$AA_?$AAx?$AA8?$AA6?$AA?2?$AAc@ 00424d28     msvcrtd:wcrtexew.obj
 0003:00001da0       ??_C@_1FA@DALEHHGL@?$AA_?$AA_?$AAn?$AAa?$AAt?$AAi?$AAv?$AAe?$AA_?$AAs?$AAt?$AAa?$AAr?$AAt?$AAu?$AAp?$AA_?$AAs?$AAt?$AAa?$AAt?$AAe?$AA?5?$AA?$DN?$AA?$DN?$AA?5?$AA_?$AA_?$AAi?$AAn?$AAi?$AAt@ 00424da0     msvcrtd:wcrtexew.obj
 0003:00001e04       ??_7type_info@@6B@         00424e04     msvcrtd:ti_inst.obj
 0003:00001e0c       ?ProcessDetach@NativeDll@<CrtImplementationDetails>@@0IB 00424e0c     msvcrtd:unhandld.obj
 0003:00001e10       ?ProcessAttach@NativeDll@<CrtImplementationDetails>@@0IB 00424e10     msvcrtd:unhandld.obj
 0003:00001e14       ?ThreadAttach@NativeDll@<CrtImplementationDetails>@@0IB 00424e14     msvcrtd:unhandld.obj
 0003:00001e18       ?ThreadDetach@NativeDll@<CrtImplementationDetails>@@0IB 00424e18     msvcrtd:unhandld.obj
 0003:00001e1c       ?ProcessVerifier@NativeDll@<CrtImplementationDetails>@@0IB 00424e1c     msvcrtd:unhandld.obj
 0003:00001e20       ??_C@_1GE@KOCFNGPB@?$AA_?$AAc?$AAo?$AAn?$AAt?$AAr?$AAo?$AAl?$AAf?$AAp?$AA_?$AAs?$AA?$CI?$AA?$CI?$AA?$CI?$AAv?$AAo?$AAi?$AAd?$AA?5?$AA?$CK?$AA?$CJ?$AA0?$AA?$CJ?$AA?0?$AA?5?$AA0?$AAx?$AA0?$AA0?$AA0?$AA1@ 00424e20     msvcrtd:fp8.obj
 0003:00001e98       ??_C@_1CK@JMKHCBEI@?$AA_?$AAs?$AAe?$AAt?$AAd?$AAe?$AAf?$AAa?$AAu?$AAl?$AAt?$AAp?$AAr?$AAe?$AAc?$AAi?$AAs?$AAi?$AAo?$AAn?$AA?$AA@ 00424e98     msvcrtd:fp8.obj
 0003:00001ed0       ??_C@_1GG@PHGJJHBC@?$AAf?$AA?3?$AA?2?$AAd?$AAd?$AA?2?$AAv?$AAc?$AAt?$AAo?$AAo?$AAl?$AAs?$AA?2?$AAc?$AAr?$AAt?$AA_?$AAb?$AAl?$AAd?$AA?2?$AAs?$AAe?$AAl?$AAf?$AA_?$AAx?$AA8?$AA6?$AA?2?$AAc@ 00424ed0     msvcrtd:fp8.obj
 0003:00001f4c       ??_C@_0BO@GNIAFIKK@Unknown?5Runtime?5Check?5Error?6?$AN?$AA@ 00424f4c     msvcrtd:_error_.obj
 0003:00001f70       ??_C@_0CM@NGINOKPC@Stack?5memory?5around?5_alloca?5was?5@ 00424f70     msvcrtd:_error_.obj
 0003:00001fa4       ??_C@_0DG@HKJMLLLP@A?5local?5variable?5was?5used?5before@ 00424fa4     msvcrtd:_error_.obj
 0003:00001fe4       ??_C@_0BN@FFOINMNJ@Stack?5memory?5was?5corrupted?6?$AN?$AA@ 00424fe4     msvcrtd:_error_.obj
 0003:00002008       ??_C@_0BBN@GPMLNJCF@A?5cast?5to?5a?5smaller?5data?5type?5ha@ 00425008     msvcrtd:_error_.obj
 0003:00002160       ??_C@_0NN@NGPKDKPD@The?5value?5of?5ESP?5was?5not?5properl@ 00425160     msvcrtd:_error_.obj
 0003:00002328       ??_C@_0CA@IODNCDPG@Run?9Time?5Check?5Failure?5?$CD?$CFd?5?9?5?$CFs?$AA@ 00425328     msvcrtd:_error_.obj
 0003:00002350       ??_C@_0BE@GNBOBNCK@Unknown?5Module?5Name?$AA@ 00425350     msvcrtd:_error_.obj
 0003:00002368       ??_C@_0BB@PFFGGCJP@Unknown?5Filename?$AA@ 00425368     msvcrtd:_error_.obj
 0003:00002380       ??_C@_1EA@NFKNIFJP@?$AAR?$AAu?$AAn?$AA?9?$AAT?$AAi?$AAm?$AAe?$AA?5?$AAC?$AAh?$AAe?$AAc?$AAk?$AA?5?$AAF?$AAa?$AAi?$AAl?$AAu?$AAr?$AAe?$AA?5?$AA?$CD?$AA?$CF?$AAd?$AA?5?$AA?9?$AA?5?$AA?$CF?$AAs?$AA?$AA@ 00425380     msvcrtd:_error_.obj
 0003:000023d0       ??_C@_1GM@OLMCBDMB@?$AAR?$AAu?$AAn?$AAt?$AAi?$AAm?$AAe?$AA?5?$AAC?$AAh?$AAe?$AAc?$AAk?$AA?5?$AAE?$AAr?$AAr?$AAo?$AAr?$AA?4?$AA?6?$AA?$AN?$AA?5?$AAU?$AAn?$AAa?$AAb?$AAl?$AAe?$AA?5?$AAt?$AAo@ 004253d0     msvcrtd:_error_.obj
 0003:00002454       ??_C@_0CG@IAFNJNEE@Stack?5corrupted?5near?5unknown?5var@ 00425454     msvcrtd:_error_.obj
 0003:00002488       ??_C@_0EJ@LJKNEOLN@Stack?5area?5around?5_alloca?5memory@ 00425488     msvcrtd:_error_.obj
 0003:000024e0       ??_C@_08KJEDNCKC@?$CFs?$CFs?$CFs?$CFs?$AA@ 004254e0     msvcrtd:_error_.obj
 0003:000024ec       ??_C@_02LLMPMKNF@?$DO?5?$AA@ 004254ec     msvcrtd:_error_.obj
 0003:000024f0       ??_C@_01EEMJAFIK@?6?$AA@   004254f0     msvcrtd:_error_.obj
 0003:000024f4       ??_C@_0BC@KIBAILCI@?$CFs?$CFs?$CFp?$CFs?$CFld?$CFs?$CFd?$CFs?$AA@ 004254f4     msvcrtd:_error_.obj
 0003:00002510       ??_C@_0EI@CLEPFNGI@Stack?5area?5around?5_alloca?5memory@ 00425510     msvcrtd:_error_.obj
 0003:00002568       ??_C@_0N@MHFFIMFG@?6Address?3?50x?$AA@ 00425568     msvcrtd:_error_.obj
 0003:00002578       ??_C@_07DFDJCKFN@?6Size?3?5?$AA@ 00425578     msvcrtd:_error_.obj
 0003:00002584       ??_C@_0CK@DKGBICFE@?6Allocation?5number?5within?5this?5f@ 00425584     msvcrtd:_error_.obj
 0003:000025b8       ??_C@_08OMAHNMHJ@?6Data?3?5?$DM?$AA@ 004255b8     msvcrtd:_error_.obj
 0003:000025c4       ??_C@_09FOPFMPEJ@wsprintfA?$AA@ 004255c4     msvcrtd:_error_.obj
 0003:000025d0       ??_C@_0L@GMPLCCII@user32?4dll?$AA@ 004255d0     msvcrtd:_error_.obj
 0003:000025e0       ??_C@_05MKKEDADM@?$CF?42X?5?$AA@ 004255e0     msvcrtd:_error_.obj
 0003:000025e8       ??_C@_0DE@OHJBPMBP@A?5variable?5is?5being?5used?5without@ 004255e8     msvcrtd:_error_.obj
 0003:00002628       ??_C@_0BP@OGBCLIBO@Stack?5around?5_alloca?5corrupted?$AA@ 00425628     msvcrtd:_userapi_.obj
 0003:00002650       ??_C@_0CK@CNLNOEPB@Local?5variable?5used?5before?5initi@ 00425650     msvcrtd:_userapi_.obj
 0003:00002684       ??_C@_0BI@CIGMDCBH@Stack?5memory?5corruption?$AA@ 00425684     msvcrtd:_userapi_.obj
 0003:000026a0       ??_C@_0CK@FEGOIOPB@Cast?5to?5smaller?5type?5causing?5los@ 004256a0     msvcrtd:_userapi_.obj
 0003:000026d4       ??_C@_0BJ@HEGAHDFO@Stack?5pointer?5corruption?$AA@ 004256d4     msvcrtd:_userapi_.obj
 0003:00002718       ??_C@_0M@EKFFODEC@MSPDB80?4DLL?$AA@ 00425718     msvcrtd:_pdblkup_.obj
 0003:00002728       ??_C@_01KDCPPGHE@r?$AA@    00425728     msvcrtd:_pdblkup_.obj
 0003:0000272c       ??_C@_0BB@KCIACLNC@PDBOpenValidate5?$AA@ 0042572c     msvcrtd:_pdblkup_.obj
 0003:00002740       ??_C@_0BF@BMIHBHCA@EnvironmentDirectory?$AA@ 00425740     msvcrtd:_pdblkup_.obj
 0003:0000275c       ??_C@_0CN@JNNIHDGH@SOFTWARE?2Microsoft?2VisualStudio?2@ 0042575c     msvcrtd:_pdblkup_.obj
 0003:00002794       ??_C@_0M@HLOHPNFA@RegCloseKey?$AA@ 00425794     msvcrtd:_pdblkup_.obj
 0003:000027a4       ??_C@_0BB@HHEIPGME@RegQueryValueExA?$AA@ 004257a4     msvcrtd:_pdblkup_.obj
 0003:000027b8       ??_C@_0O@DCOGKJGG@RegOpenKeyExA?$AA@ 004257b8     msvcrtd:_pdblkup_.obj
 0003:000027c8       ??_C@_0N@JJPEKNFO@ADVAPI32?4DLL?$AA@ 004257c8     msvcrtd:_pdblkup_.obj
 0003:000027d8       ??_C@_06JMICFIKN@?$CFs_?$CF0x?$AA@ 004257d8     atlsd:Externs.obj
 0003:000027e0       ??_C@_0CJ@CAALMDEI@AtlDebugAllocator_FileMappingNam@ 004257e0     atlsd:Externs.obj
 0003:00002814       ??_C@_0CK@BODLKOMG@AtlTraceModuleManager_ProcessAdd@ 00425814     atlsd:Externs.obj
 0003:00002848       ??_C@_1GM@OMLOBEGL@?$AAf?$AA?3?$AA?2?$AAd?$AAd?$AA?2?$AAv?$AAc?$AAt?$AAo?$AAo?$AAl?$AAs?$AA?2?$AAv?$AAc?$AA7?$AAl?$AAi?$AAb?$AAs?$AA?2?$AAs?$AAh?$AAi?$AAp?$AA?2?$AAa?$AAt?$AAl?$AAm?$AAf@ 00425848     atlsd:Externs.obj
 0003:000028cc       ??_C@_1M@HLGKFCJM@?$AAf?$AAa?$AAl?$AAs?$AAe?$AA?$AA@ 004258cc     atlsd:Externs.obj
 0003:000028dc       ??_C@_0DG@BLHODJEO@f?3?2dd?2vctools?2vc7libs?2ship?2atlmf@ 004258dc     atlsd:Externs.obj
 0003:0000291c       ??_C@_0BF@IAAKIJDJ@AtlThrow?3?5hr?5?$DN?50x?$CFx?6?$AA@ 0042591c     atlsd:Externs.obj
 0003:00002938       ??_C@_0BA@MKMIKKJB@atlTraceGeneral?$AA@ 00425938     atlsd:atltrace.obj
 0003:0000294c       ??_C@_0M@DGPFJEBB@atlTraceCOM?$AA@ 0042594c     atlsd:atltrace.obj
 0003:0000295c       ??_C@_0L@LHELAKBP@atlTraceQI?$AA@ 0042595c     atlsd:atltrace.obj
 0003:0000296c       ??_C@_0BC@MALHFBAO@atlTraceRegistrar?$AA@ 0042596c     atlsd:atltrace.obj
 0003:00002984       ??_C@_0BB@ILPPDKFL@atlTraceRefcount?$AA@ 00425984     atlsd:atltrace.obj
 0003:00002998       ??_C@_0BC@DGHHNKDC@atlTraceWindowing?$AA@ 00425998     atlsd:atltrace.obj
 0003:000029b0       ??_C@_0BB@GHKJKKIE@atlTraceControls?$AA@ 004259b0     atlsd:atltrace.obj
 0003:000029c4       ??_C@_0BA@DKOAAGGM@atlTraceHosting?$AA@ 004259c4     atlsd:atltrace.obj
 0003:000029d8       ??_C@_0BB@BEBMGMDO@atlTraceDBClient?$AA@ 004259d8     atlsd:atltrace.obj
 0003:000029ec       ??_C@_0BD@KOADKDIA@atlTraceDBProvider?$AA@ 004259ec     atlsd:atltrace.obj
 0003:00002a04       ??_C@_0P@LNEGBOLO@atlTraceSnapin?$AA@ 00425a04     atlsd:atltrace.obj
 0003:00002a18       ??_C@_0BA@MCBFIDIC@atlTraceNotImpl?$AA@ 00425a18     atlsd:atltrace.obj
 0003:00002a2c       ??_C@_0BD@PJPCCAKP@atlTraceAllocation?$AA@ 00425a2c     atlsd:atltrace.obj
 0003:00002a44       ??_C@_0BC@PGMFNIFA@atlTraceException?$AA@ 00425a44     atlsd:atltrace.obj
 0003:00002a5c       ??_C@_0N@BNNILHBE@atlTraceTime?$AA@ 00425a5c     atlsd:atltrace.obj
 0003:00002a6c       ??_C@_0O@MEOJAOKK@atlTraceCache?$AA@ 00425a6c     atlsd:atltrace.obj
 0003:00002a7c       ??_C@_0BA@IDBKCKK@atlTraceStencil?$AA@ 00425a7c     atlsd:atltrace.obj
 0003:00002a90       ??_C@_0P@MBNHGHMI@atlTraceString?$AA@ 00425a90     atlsd:atltrace.obj
 0003:00002aa4       ??_C@_0M@IOBBMAHG@atlTraceMap?$AA@ 00425aa4     atlsd:atltrace.obj
 0003:00002ab4       ??_C@_0N@FEAAACHD@atlTraceUtil?$AA@ 00425ab4     atlsd:atltrace.obj
 0003:00002ac4       ??_C@_0BB@DNJDADMG@atlTraceSecurity?$AA@ 00425ac4     atlsd:atltrace.obj
 0003:00002ad8       ??_C@_0N@KLPNCFEE@atlTraceSync?$AA@ 00425ad8     atlsd:atltrace.obj
 0003:00002ae8       ??_C@_0O@KHOBHOBJ@atlTraceISAPI?$AA@ 00425ae8     atlsd:atltrace.obj
 0003:00002af8       ??_C@_0N@BEIMPMHB@atlTraceUser?$AA@ 00425af8     atlsd:atltrace.obj
 0003:00002b08       ??_C@_0O@MKGGJJCH@atlTraceUser2?$AA@ 00425b08     atlsd:atltrace.obj
 0003:00002b18       ??_C@_0O@NDHNKIGG@atlTraceUser3?$AA@ 00425b18     atlsd:atltrace.obj
 0003:00002b28       ??_C@_0O@JMDMDOKB@atlTraceUser4?$AA@ 00425b28     atlsd:atltrace.obj
 0003:00002b38       ??_C@_1HO@MNFHLCLF@?$AAf?$AA?3?$AA?2?$AAd?$AAd?$AA?2?$AAv?$AAc?$AAt?$AAo?$AAo?$AAl?$AAs?$AA?2?$AAv?$AAc?$AA7?$AAl?$AAi?$AAb?$AAs?$AA?2?$AAs?$AAh?$AAi?$AAp?$AA?2?$AAa?$AAt?$AAl?$AAm?$AAf@ 00425b38     atlsd:AtlDebugAPI.obj
 0003:00002bd0       ??_C@_1BK@LIHAAANN@?$AAp?$AAM?$AAo?$AAd?$AAu?$AAl?$AAe?$AA?5?$AA?$CB?$AA?$DN?$AA?5?$AA0?$AA?$AA@ 00425bd0     atlsd:AtlDebugAPI.obj
 0003:00002bf0       ??_C@_1BM@DFEBCPM@?$AAp?$AAP?$AAr?$AAo?$AAc?$AAe?$AAs?$AAs?$AA?5?$AA?$CB?$AA?$DN?$AA?5?$AA0?$AA?$AA@ 00425bf0     atlsd:AtlDebugAPI.obj
 0003:00002c14       ??_C@_1BM@GBBOFEAE@?$AA_?$AA_?$AAa?$AAt?$AAl?$AA_?$AAc?$AAo?$AAn?$AAd?$AAV?$AAa?$AAl?$AA?$AA@ 00425c14     atlsd:AtlDebugAPI.obj
 0003:00002c38       ??_C@_02DKCKIIND@?$CFs?$AA@ 00425c38     atlsd:AtlDebugAPI.obj
 0003:00002c3c       ??_C@_04FFDMEMDO@?$CFS?3?5?$AA@ 00425c3c     atlsd:AtlDebugAPI.obj
 0003:00002c44       ??_C@_09IIMHCEDG@?$CFs?$CI?$CFd?$CJ?5?3?5?$AA@ 00425c44     atlsd:AtlDebugAPI.obj
 0003:00002c50       ??_C@_02KPKOKMHB@?$CFS?$AA@ 00425c50     atlsd:AtlDebugAPI.obj
 0003:00002c54       ??_C@_19JCANECJL@?$AA?$CF?$AAs?$AA?3?$AA?5?$AA?$AA@ 00425c54     atlsd:AtlDebugAPI.obj
 0003:00002c60       ??_C@_1BE@PGKGHBDF@?$AA?$CF?$AAS?$AA?$CI?$AA?$CF?$AAd?$AA?$CJ?$AA?5?$AA?3?$AA?5?$AA?$AA@ 00425c60     atlsd:AtlDebugAPI.obj
 0003:00002c78       ??_C@_1DA@NMHCLMEJ@?$AAp?$AAA?$AAl?$AAl?$AAo?$AAc?$AAa?$AAt?$AAo?$AAr?$AA?9?$AA?$DO?$AAm?$AA_?$AAb?$AAS?$AAn?$AAa?$AAp?$AAs?$AAh?$AAo?$AAt?$AA?$AA@ 00425c78     atlsd:AtlDebugAPI.obj
 0003:00002cb4       ??_C@_1CE@NDBHOLMF@?$AAp?$AAP?$AAr?$AAo?$AAc?$AAe?$AAs?$AAs?$AAI?$AAn?$AAf?$AAo?$AA?5?$AA?$CB?$AA?$DN?$AA?5?$AA0?$AA?$AA@ 00425cb4     atlsd:AtlDebugAPI.obj
 0003:00002ce0       ??_C@_1CC@ONKAHKMP@?$AAp?$AAM?$AAo?$AAd?$AAu?$AAl?$AAe?$AAI?$AAn?$AAf?$AAo?$AA?5?$AA?$CB?$AA?$DN?$AA?5?$AA0?$AA?$AA@ 00425ce0     atlsd:AtlDebugAPI.obj
 0003:00002d08       ??_C@_1CG@BANGGBIE@?$AAp?$AAC?$AAa?$AAt?$AAe?$AAg?$AAo?$AAr?$AAy?$AAI?$AAn?$AAf?$AAo?$AA?5?$AA?$CB?$AA?$DN?$AA?5?$AA0?$AA?$AA@ 00425d08     atlsd:AtlDebugAPI.obj
 0003:00002d38       ??_C@_1BC@JOPFIJLO@?$AAp?$AAP?$AAr?$AAo?$AAc?$AAe?$AAs?$AAs?$AA?$AA@ 00425d38     atlsd:AtlDebugAPI.obj
 0003:00002d50       ??_C@_1DM@CECLCIOA@?$AAp?$AAp?$AAC?$AAa?$AAt?$AAe?$AAg?$AAo?$AAr?$AAy?$AA?5?$AA?$CG?$AA?$CG?$AA?5?$AAp?$AAf?$AAn?$AAC?$AAr?$AAt?$AAD?$AAb?$AAg?$AAR?$AAe?$AAp?$AAo?$AAr?$AAt?$AA?$AA@ 00425d50     atlsd:AtlDebugAPI.obj
 0003:00002d98       ??_C@_1HA@EFGOBFOA@?$AAf?$AA?3?$AA?2?$AAd?$AAd?$AA?2?$AAv?$AAc?$AAt?$AAo?$AAo?$AAl?$AAs?$AA?2?$AAv?$AAc?$AA7?$AAl?$AAi?$AAb?$AAs?$AA?2?$AAs?$AAh?$AAi?$AAp?$AA?2?$AAa?$AAt?$AAl?$AAm?$AAf@ 00425d98     atlsd:AtlDebugAPI.obj
 0003:00002e20       ??_C@_1EA@JHMKKLFC@?$AAn?$AAI?$AAn?$AAd?$AAe?$AAx?$AA?5?$AA?$DO?$AA?$DN?$AA?5?$AA0?$AA?5?$AA?$CG?$AA?$CG?$AA?5?$AAn?$AAI?$AAn?$AAd?$AAe?$AAx?$AA?5?$AA?$DM?$AA?5?$AAm?$AA_?$AAn?$AAS?$AAi?$AAz?$AAe?$AA?$AA@ 00425e20     atlsd:AtlDebugAPI.obj
 0003:00002e70       ??_C@_1GI@CLJCGCPP@?$AAf?$AA?3?$AA?2?$AAd?$AAd?$AA?2?$AAv?$AAc?$AAt?$AAo?$AAo?$AAl?$AAs?$AA?2?$AAv?$AAc?$AA7?$AAl?$AAi?$AAb?$AAs?$AA?2?$AAs?$AAh?$AAi?$AAp?$AA?2?$AAa?$AAt?$AAl?$AAm?$AAf@ 00425e70     atlsd:AtlDebugAPI.obj
 0003:00002eec       ??_C@_1BC@PMINONJG@?$AAb?$AAS?$AAu?$AAc?$AAc?$AAe?$AAs?$AAs?$AA?$AA@ 00425eec     atlsd:Allocate.obj
 0003:00002f08       ??_C@_1HI@MDMANKNC@?$AAf?$AA?3?$AA?2?$AAd?$AAd?$AA?2?$AAv?$AAc?$AAt?$AAo?$AAo?$AAl?$AAs?$AA?2?$AAv?$AAc?$AA7?$AAl?$AAi?$AAb?$AAs?$AA?2?$AAs?$AAh?$AAi?$AAp?$AA?2?$AAa?$AAt?$AAl?$AAm?$AAf@ 00425f08     atlsd:Allocate.obj
 0003:00002f98       ??_C@_1DG@LHMNHOH@?$AA?$CB?$AAm?$AA_?$AAh?$AAM?$AAa?$AAp?$AA?5?$AA?$CG?$AA?$CG?$AA?5?$AA?$CB?$AAm?$AA_?$AAp?$AAB?$AAu?$AAf?$AAf?$AAe?$AAr?$AAS?$AAt?$AAa?$AAr?$AAt?$AA?$AA@ 00425f98     atlsd:Allocate.obj
 0003:00002fd8       ??_C@_1CC@JCNIBNON@?$AAi?$AAM?$AAo?$AAd?$AAu?$AAl?$AAe?$AA?5?$AA?$DM?$AA?5?$AAm?$AAo?$AAd?$AAc?$AAn?$AAt?$AA?$AA@ 00425fd8     atlsd:Allocate.obj
 0003:00003000       ??_C@_1HO@KONLCGL@?$AA?$CI?$AAi?$AAC?$AAa?$AAt?$AAe?$AAg?$AAo?$AAr?$AAy?$AA?5?$AA?$DM?$AA?5?$AAm?$AA_?$AAp?$AAP?$AAr?$AAo?$AAc?$AAe?$AAs?$AAs?$AA?9?$AA?$DO?$AAC?$AAa?$AAt?$AAe?$AAg?$AAo?$AAr@ 00426000     atlsd:Allocate.obj
 0003:00003098       ??_C@_1BG@EIHNOMMF@?$AAm?$AA_?$AAp?$AAP?$AAr?$AAo?$AAc?$AAe?$AAs?$AAs?$AA?$AA@ 00426098     atlsd:Allocate.obj
 0003:000030b8       ??_C@_1IO@GJLKCBCE@?$AAf?$AA?3?$AA?2?$AAd?$AAd?$AA?2?$AAv?$AAc?$AAt?$AAo?$AAo?$AAl?$AAs?$AA?2?$AAv?$AAc?$AA7?$AAl?$AAi?$AAb?$AAs?$AA?2?$AAs?$AAh?$AAi?$AAp?$AA?2?$AAa?$AAt?$AAl?$AAm?$AAf@ 004260b8     atlsd:Allocate.obj
 0003:00003164       ??_C@_1BK@GFEAMNLJ@?$AAn?$AAC?$AAo?$AAo?$AAk?$AAi?$AAe?$AA?5?$AA?$CB?$AA?$DN?$AA?5?$AA0?$AA?$AA@ 00426164     atlsd:Allocate.obj
 0003:00003184       ??_C@_1BO@OAGIAJOK@?$AAp?$AAC?$AAa?$AAt?$AAe?$AAg?$AAo?$AAr?$AAy?$AA?5?$AA?$CB?$AA?$DN?$AA?5?$AA0?$AA?$AA@ 00426184     atlsd:Allocate.obj
 0003:000031a8       ??_C@_11LOCGONAA@?$AA?$AA@ 004261a8     atlsd:AtlTraceModuleManager.obj
 0003:000031d4       ??_C@_0DH@EMOHNEGB@f?3?2dd?2vctools?2vc7libs?2ship?2atlmf@ 004261d4     mfcs90ud:appmodul.obj
 0003:00003574       ??_R4ClengnanApp@@6B@      00426574     lengnan.obj
 0003:0000358c       ??_R3ClengnanApp@@8        0042658c     lengnan.obj
 0003:000035a0       ??_R2ClengnanApp@@8        004265a0     lengnan.obj
 0003:000035bc       ??_R1A@?0A@EA@ClengnanApp@@8 004265bc     lengnan.obj
 0003:000035e0       ??_R1A@?0A@EA@CWinApp@@8   004265e0     lengnan.obj
 0003:00003604       ??_R3CWinApp@@8            00426604     lengnan.obj
 0003:00003618       ??_R2CWinApp@@8            00426618     lengnan.obj
 0003:0000362c       ??_R1A@?0A@EA@CWinThread@@8 0042662c     lengnan.obj
 0003:00003650       ??_R3CWinThread@@8         00426650     lengnan.obj
 0003:00003664       ??_R2CWinThread@@8         00426664     lengnan.obj
 0003:00003674       ??_R1A@?0A@EA@CCmdTarget@@8 00426674     lengnan.obj
 0003:00003698       ??_R3CCmdTarget@@8         00426698     lengnan.obj
 0003:000036ac       ??_R2CCmdTarget@@8         004266ac     lengnan.obj
 0003:000036b8       ??_R1A@?0A@EA@CObject@@8   004266b8     lengnan.obj
 0003:000036dc       ??_R3CObject@@8            004266dc     lengnan.obj
 0003:000036f0       ??_R2CObject@@8            004266f0     lengnan.obj
 0003:000036f8       ??_R4CAboutDlg@@6B@        004266f8     lengnan.obj
 0003:00003710       ??_R3CAboutDlg@@8          00426710     lengnan.obj
 0003:00003724       ??_R2CAboutDlg@@8          00426724     lengnan.obj
 0003:00003740       ??_R1A@?0A@EA@CAboutDlg@@8 00426740     lengnan.obj
 0003:00003764       ??_R1A@?0A@EA@CDialog@@8   00426764     lengnan.obj
 0003:00003788       ??_R3CDialog@@8            00426788     lengnan.obj
 0003:0000379c       ??_R2CDialog@@8            0042679c     lengnan.obj
 0003:000037b0       ??_R1A@?0A@EA@CWnd@@8      004267b0     lengnan.obj
 0003:000037d4       ??_R3CWnd@@8               004267d4     lengnan.obj
 0003:000037e8       ??_R2CWnd@@8               004267e8     lengnan.obj
 0003:000037f8       ??_R4ClengnanDoc@@6B@      004267f8     lengnanDoc.obj
 0003:00003810       ??_R3ClengnanDoc@@8        00426810     lengnanDoc.obj
 0003:00003824       ??_R2ClengnanDoc@@8        00426824     lengnanDoc.obj
 0003:00003838       ??_R1A@?0A@EA@ClengnanDoc@@8 00426838     lengnanDoc.obj
 0003:0000385c       ??_R1A@?0A@EA@CDocument@@8 0042685c     lengnanDoc.obj
 0003:00003880       ??_R3CDocument@@8          00426880     lengnanDoc.obj
 0003:00003894       ??_R2CDocument@@8          00426894     lengnanDoc.obj
 0003:000038a4       ??_R4ClengnanView@@6B@     004268a4     lengnanView.obj
 0003:000038bc       ??_R3ClengnanView@@8       004268bc     lengnanView.obj
 0003:000038d0       ??_R2ClengnanView@@8       004268d0     lengnanView.obj
 0003:000038ec       ??_R1A@?0A@EA@ClengnanView@@8 004268ec     lengnanView.obj
 0003:00003910       ??_R1A@?0A@EA@CView@@8     00426910     lengnanView.obj
 0003:00003934       ??_R3CView@@8              00426934     lengnanView.obj
 0003:00003948       ??_R2CView@@8              00426948     lengnanView.obj
 0003:0000395c       ??_R4CMainFrame@@6B@       0042695c     MainFrm.obj
 0003:00003974       ??_R3CMainFrame@@8         00426974     MainFrm.obj
 0003:00003988       ??_R2CMainFrame@@8         00426988     MainFrm.obj
 0003:000039a4       ??_R1A@?0A@EA@CMainFrame@@8 004269a4     MainFrm.obj
 0003:000039c8       ??_R1A@?0A@EA@CFrameWnd@@8 004269c8     MainFrm.obj
 0003:000039ec       ??_R3CFrameWnd@@8          004269ec     MainFrm.obj
 0003:00003a00       ??_R2CFrameWnd@@8          00426a00     MainFrm.obj
 0003:00003a14       ??_R4Thank_you@Define_the_symbol__ATL_MIXED@@6B@ 00426a14     stdafx.obj
 0003:00003a2c       ??_R3Thank_you@Define_the_symbol__ATL_MIXED@@8 00426a2c     stdafx.obj
 0003:00003a40       ??_R2Thank_you@Define_the_symbol__ATL_MIXED@@8 00426a40     stdafx.obj
 0003:00003a48       ??_R1A@?0A@EA@Thank_you@Define_the_symbol__ATL_MIXED@@8 00426a48     stdafx.obj
 0003:00003a6c       ??_R4type_info@@6B@        00426a6c     msvcrtd:ti_inst.obj
 0003:00003a84       ??_R3type_info@@8          00426a84     msvcrtd:ti_inst.obj
 0003:00003a98       ??_R2type_info@@8          00426a98     msvcrtd:ti_inst.obj
 0003:00003aa0       ??_R1A@?0A@EA@type_info@@8 00426aa0     msvcrtd:ti_inst.obj
 0003:00003be4       ___rtc_iaa                 00426be4     msvcrtd:_initsect_.obj
 0003:00003e00       ___rtc_izz                 00426e00     msvcrtd:_initsect_.obj
 0003:00003f04       ___rtc_taa                 00426f04     msvcrtd:_initsect_.obj
 0003:00004120       ___rtc_tzz                 00427120     msvcrtd:_initsect_.obj
 0003:000044c0       __TI1?AVCAtlException@ATL@@ 004274c0     atlsd:Externs.obj
 0003:000044d4       __CTA1?AVCAtlException@ATL@@ 004274d4     atlsd:Externs.obj
 0003:000044dc       __CT??_R0?AVCAtlException@ATL@@@84 004274dc     atlsd:Externs.obj
 0003:00004698       ___pobjMapEntryFirst       00427698     mfcs90ud:nolib.obj
 0003:0000479c       ___pobjMapEntryLast        0042779c     mfcs90ud:nolib.obj
 0004:00000000       ??_R0?AVClengnanApp@@@8    00428000     lengnan.obj
 0004:00000020       ??_R0?AVCWinApp@@@8        00428020     lengnan.obj
 0004:0000003c       ??_R0?AVCWinThread@@@8     0042803c     lengnan.obj
 0004:0000005c       ??_R0?AVCCmdTarget@@@8     0042805c     lengnan.obj
 0004:0000007c       ??_R0?AVCObject@@@8        0042807c     lengnan.obj
 0004:00000098       ?__LINE__Var@?1??InitInstance@ClengnanApp@@UAEHXZ@4JA 00428098     lengnan.obj
 0004:0000009c       ??_R0?AVCAboutDlg@@@8      0042809c     lengnan.obj
 0004:000000b8       ??_R0?AVCDialog@@@8        004280b8     lengnan.obj
 0004:000000d4       ??_R0?AVCWnd@@@8           004280d4     lengnan.obj
 0004:000000ec       ??_R0?AVClengnanDoc@@@8    004280ec     lengnanDoc.obj
 0004:0000010c       ??_R0?AVCDocument@@@8      0042810c     lengnanDoc.obj
 0004:00000158       ??_R0?AVClengnanView@@@8   00428158     lengnanView.obj
 0004:00000178       ??_R0?AVCView@@@8          00428178     lengnanView.obj
 0004:00000190       ?__LINE__Var@?1??OnDraw@ClengnanView@@UAEXPAVCDC@@@Z@4JA 00428190     lengnanView.obj
 0004:00000194       ?__LINE__Var@?1??GetDocument@ClengnanView@@QBEPAVClengnanDoc@@XZ@4JA 00428194     lengnanView.obj
 0004:00000198       ?__LINE__Var@?1??InitializeOpenGL@ClengnanView@@QAEHXZ@4JA 00428198     lengnanView.obj
 0004:000001b0       ??_R0?AVCMainFrame@@@8     004281b0     MainFrm.obj
 0004:000001d0       ??_R0?AVCFrameWnd@@@8      004281d0     MainFrm.obj
 0004:000001ec       ?__LINE__Var@?1??OnCreate@CMainFrame@@IAEHPAUtagCREATESTRUCTW@@@Z@4JA 004281ec     MainFrm.obj
 0004:000001f0       __pIncludeInitManaged      004281f0     stdafx.obj
 0004:000001f4       ??_R0?AUThank_you@Define_the_symbol__ATL_MIXED@@@8 004281f4     stdafx.obj
 0004:00000234       ??_R0?AVtype_info@@@8      00428234     msvcrtd:ti_inst.obj
 0004:00000250       ___security_cookie         00428250     msvcrtd:gs_cookie.obj
 0004:00000254       ___security_cookie_complement 00428254     msvcrtd:gs_cookie.obj
 0004:00000260       ___globallocalestatus      00428260     msvcrtd:xthdloc.obj
 0004:00000264       ___defaultmatherr          00428264     msvcrtd:merr.obj
 0004:00000268       ___native_dllmain_reason   00428268     msvcrtd:natstart.obj
 0004:0000026c       ___native_vcclrit_reason   0042826c     msvcrtd:natstart.obj
 0004:00000274       ?_RTC_ErrorLevels@@3PAHA   00428274     msvcrtd:_error_.obj
 0004:00000290       ?g_pszUpdateEventName@@3PBDB 00428290     atlsd:Externs.obj
 0004:00000294       ?g_pszAllocFileMapName@@3PBDB 00428294     atlsd:Externs.obj
 0004:00000298       ?g_pszKernelObjFmt@@3PBDB  00428298     atlsd:Externs.obj
 0004:000002a0       ??_R0?AVCAtlException@ATL@@@8 004282a0     atlsd:Externs.obj
 0004:000003e0       ?theApp@@3VClengnanApp@@A  004283e0     lengnan.obj
 0004:000004a4       ?s_pfnPrevHook@CNoUIAssertHook@ATL@@0P6AHHPADPAH@ZA 004284a4     stdafx.obj
 0004:000004a8       ?m_bInitFailed@CAtlBaseModule@ATL@@2_NA 004284a8     stdafx.obj
 0004:000004ac       ?s_pLog@CFixedStringMgr@ATL@@2PAVIFixedStringLog@2@A 004284ac     stdafx.obj
 0004:000004b0       ?clash@Define_the_symbol__ATL_MIXED@@3UThank_you@1@A 004284b0     stdafx.obj
 0004:000004b4       ?clash@Inconsistent_definition_of_symbol__ATL_MIXED@@3U_Please_define_it_the_same_throughout_your_project@1@A 004284b4     stdafx.obj
 0004:000004b8       ?_pAtlAutoThreadModule@ATL@@3PAUIAtlAutoThreadModule@1@A 004284b8     mfcs90ud:nolib.obj
 0004:000004bc       __afxForceEXCLUDE          004284bc     mfcs90ud:nolib.obj
 0004:000004c0       ?_pPerfRegFunc@ATL@@3P6AJPAUHINSTANCE__@@@ZA 004284c0     mfcs90ud:nolib.obj
 0004:000004c4       ?_pPerfUnRegFunc@ATL@@3P6AJXZA 004284c4     mfcs90ud:nolib.obj
 0004:000004c8       ?_AtlRegisterPerUser@ATL@@3_NA 004284c8     mfcs90ud:nolib.obj
 0004:000004cc       ?_pAtlModule@ATL@@3PAVCAtlModule@1@A 004284cc     mfcs90ud:nolib.obj
 0004:000004d0       ?m_libid@CAtlModule@ATL@@2U_GUID@@A 004284d0     mfcs90ud:nolib.obj
 0004:000004e4       ?_pModule@ATL@@3PAVCComModule@1@A 004284e4     mfcs90ud:nolib.obj
 0004:000004e8       ?ATL_CREATE_OBJECT@CComApartment@ATL@@2IA 004284e8     mfcs90ud:nolib.obj
 0004:000004ec       ?WM_DESTROYMODELESS@CDHtmlDialog@@1IA 004284ec     mfcs90ud:nolib.obj
 0004:000004f0       __afxForceSTDAFX           004284f0     mfcs90ud:stdafx.obj
 0004:0000051c       __commode                  0042851c     msvcrtd:xncommod.obj
 0004:00000520       __fmode                    00428520     msvcrtd:xtxtmode.obj
 0004:00000524       __dowildcard               00428524     msvcrtd:wildcard.obj
 0004:00000528       __newmode                  00428528     msvcrtd:_newmode.obj
 0004:0000052c       ?wsprintffp@@3P6AHPADPBDZZA 0042852c     msvcrtd:_error_.obj
 0004:00000910       ?g_Allocator@@3VCAtlAllocator@@A 00428910     atlsd:Externs.obj
 0004:00000944       ?s_trace@CTrace@ATL@@2V12@A 00428944     atlsd:Externs.obj
 0004:00000958       ?atlTraceGeneral@ATL@@3VCTraceCategory@1@A 00428958     atlsd:atltrace.obj
 0004:0000095c       ?atlTraceCOM@ATL@@3VCTraceCategory@1@A 0042895c     atlsd:atltrace.obj
 0004:00000960       ?atlTraceQI@ATL@@3VCTraceCategory@1@A 00428960     atlsd:atltrace.obj
 0004:00000964       ?atlTraceRegistrar@ATL@@3VCTraceCategory@1@A 00428964     atlsd:atltrace.obj
 0004:00000968       ?atlTraceRefcount@ATL@@3VCTraceCategory@1@A 00428968     atlsd:atltrace.obj
 0004:0000096c       ?atlTraceWindowing@ATL@@3VCTraceCategory@1@A 0042896c     atlsd:atltrace.obj
 0004:00000970       ?atlTraceControls@ATL@@3VCTraceCategory@1@A 00428970     atlsd:atltrace.obj
 0004:00000974       ?atlTraceHosting@ATL@@3VCTraceCategory@1@A 00428974     atlsd:atltrace.obj
 0004:00000978       ?atlTraceDBClient@ATL@@3VCTraceCategory@1@A 00428978     atlsd:atltrace.obj
 0004:0000097c       ?atlTraceDBProvider@ATL@@3VCTraceCategory@1@A 0042897c     atlsd:atltrace.obj
 0004:00000980       ?atlTraceSnapin@ATL@@3VCTraceCategory@1@A 00428980     atlsd:atltrace.obj
 0004:00000984       ?atlTraceNotImpl@ATL@@3VCTraceCategory@1@A 00428984     atlsd:atltrace.obj
 0004:00000988       ?atlTraceAllocation@ATL@@3VCTraceCategory@1@A 00428988     atlsd:atltrace.obj
 0004:0000098c       ?atlTraceException@ATL@@3VCTraceCategory@1@A 0042898c     atlsd:atltrace.obj
 0004:00000990       ?atlTraceTime@ATL@@3VCTraceCategory@1@A 00428990     atlsd:atltrace.obj
 0004:00000994       ?atlTraceCache@ATL@@3VCTraceCategory@1@A 00428994     atlsd:atltrace.obj
 0004:00000998       ?atlTraceStencil@ATL@@3VCTraceCategory@1@A 00428998     atlsd:atltrace.obj
 0004:0000099c       ?atlTraceString@ATL@@3VCTraceCategory@1@A 0042899c     atlsd:atltrace.obj
 0004:000009a0       ?atlTraceMap@ATL@@3VCTraceCategory@1@A 004289a0     atlsd:atltrace.obj
 0004:000009a4       ?atlTraceUtil@ATL@@3VCTraceCategory@1@A 004289a4     atlsd:atltrace.obj
 0004:000009a8       ?atlTraceSecurity@ATL@@3VCTraceCategory@1@A 004289a8     atlsd:atltrace.obj
 0004:000009ac       ?atlTraceSync@ATL@@3VCTraceCategory@1@A 004289ac     atlsd:atltrace.obj
 0004:000009b0       ?atlTraceISAPI@ATL@@3VCTraceCategory@1@A 004289b0     atlsd:atltrace.obj
 0004:000009b4       ?atlTraceUser@ATL@@3VCTraceCategory@1@A 004289b4     atlsd:atltrace.obj
 0004:000009b8       ?atlTraceUser2@ATL@@3VCTraceCategory@1@A 004289b8     atlsd:atltrace.obj
 0004:000009bc       ?atlTraceUser3@ATL@@3VCTraceCategory@1@A 004289bc     atlsd:atltrace.obj
 0004:000009c0       ?atlTraceUser4@ATL@@3VCTraceCategory@1@A 004289c0     atlsd:atltrace.obj
 0004:000009d9       ?_afxInitAppState@@3DA     004289d9     mfcs90ud:appmodul.obj
 0004:000009dc       ___native_startup_state    004289dc     <common>
 0004:000009ec       ___native_startup_lock     004289ec     <common>
 0004:000009f0       __adjust_fdiv              004289f0     <common>
 0004:000009fc       ___onexitend               004289fc     <common>
 0004:00000a0c       ___onexitbegin             00428a0c     <common>
 0004:00000a10       ___dyn_tls_init_callback   00428a10     <common>
 0005:00000000       __IMPORT_DESCRIPTOR_OPENGL32 00429000     OpenGL32:OPENGL32.dll
 0005:00000014       __IMPORT_DESCRIPTOR_GLU32  00429014     GLu32:GLU32.dll
 0005:00000028       __IMPORT_DESCRIPTOR_mfc90ud 00429028     mfc90ud:mfc90ud.dll
 0005:0000003c       __IMPORT_DESCRIPTOR_MSVCR90D 0042903c     msvcrtd:MSVCR90D.dll
 0005:00000050       __IMPORT_DESCRIPTOR_KERNEL32 00429050     kernel32:KERNEL32.dll
 0005:00000064       __IMPORT_DESCRIPTOR_GDI32  00429064     gdi32:GDI32.dll
 0005:00000078       __IMPORT_DESCRIPTOR_COMCTL32 00429078     comctl32:COMCTL32.dll
 0005:0000008c       __IMPORT_DESCRIPTOR_OLEAUT32 0042908c     oleaut32:OLEAUT32.dll
 0005:000000a0       __IMPORT_DESCRIPTOR_USER32 004290a0     user32:USER32.dll
 0005:000000b4       __IMPORT_DESCRIPTOR_ADVAPI32 004290b4     advapi32:ADVAPI32.dll
 0005:000000c8       __NULL_IMPORT_DESCRIPTOR   004290c8     OpenGL32:OPENGL32.dll
 0005:00000a14       __imp__RevertToSelf@0      00429a14     advapi32:ADVAPI32.dll
 0005:00000a18       __imp__SetThreadToken@8    00429a18     advapi32:ADVAPI32.dll
 0005:00000a1c       __imp__OpenThreadToken@16  00429a1c     advapi32:ADVAPI32.dll
 0005:00000a20       \177ADVAPI32_NULL_THUNK_DATA 00429a20     advapi32:ADVAPI32.dll
 0005:00000a4c       __imp__InitCommonControlsEx@4 00429a4c     comctl32:COMCTL32.dll
 0005:00000a50       \177COMCTL32_NULL_THUNK_DATA 00429a50     comctl32:COMCTL32.dll
 0005:00000a7c       __imp__SetPixelFormat@12   00429a7c     gdi32:GDI32.dll
 0005:00000a80       __imp__SwapBuffers@4       00429a80     gdi32:GDI32.dll
 0005:00000a84       __imp__ChoosePixelFormat@8 00429a84     gdi32:GDI32.dll
 0005:00000a88       \177GDI32_NULL_THUNK_DATA  00429a88     gdi32:GDI32.dll
 0005:00000ab4       __imp__gluPerspective@32   00429ab4     GLu32:GLU32.dll
 0005:00000ab8       \177GLU32_NULL_THUNK_DATA  00429ab8     GLu32:GLU32.dll
 0005:00000ae4       __imp__InterlockedCompareExchange@12 00429ae4     kernel32:KERNEL32.dll
 0005:00000ae8       __imp__Sleep@4             00429ae8     kernel32:KERNEL32.dll
 0005:00000aec       __imp__GetProcessHeap@0    00429aec     kernel32:KERNEL32.dll
 0005:00000af0       __imp__GetStartupInfoW@4   00429af0     kernel32:KERNEL32.dll
 0005:00000af4       __imp__SetUnhandledExceptionFilter@4 00429af4     kernel32:KERNEL32.dll
 0005:00000af8       __imp__QueryPerformanceCounter@4 00429af8     kernel32:KERNEL32.dll
 0005:00000afc       __imp__InterlockedDecrement@4 00429afc     kernel32:KERNEL32.dll
 0005:00000b00       __imp__InterlockedIncrement@4 00429b00     kernel32:KERNEL32.dll
 0005:00000b04       __imp__OpenFileMappingA@12 00429b04     kernel32:KERNEL32.dll
 0005:00000b08       __imp__GetCurrentThread@0  00429b08     kernel32:KERNEL32.dll
 0005:00000b0c       __imp__CreateFileMappingA@24 00429b0c     kernel32:KERNEL32.dll
 0005:00000b10       __imp__MapViewOfFile@20    00429b10     kernel32:KERNEL32.dll
 0005:00000b14       __imp__GetSystemInfo@4     00429b14     kernel32:KERNEL32.dll
 0005:00000b18       __imp__UnmapViewOfFile@4   00429b18     kernel32:KERNEL32.dll
 0005:00000b1c       __imp__VirtualAlloc@16     00429b1c     kernel32:KERNEL32.dll
 0005:00000b20       __imp__GetLastError@0      00429b20     kernel32:KERNEL32.dll
 0005:00000b24       __imp__OutputDebugStringW@4 00429b24     kernel32:KERNEL32.dll
 0005:00000b28       __imp__OutputDebugStringA@4 00429b28     kernel32:KERNEL32.dll
 0005:00000b2c       __imp__OpenEventA@12       00429b2c     kernel32:KERNEL32.dll
 0005:00000b30       __imp__SetEvent@4          00429b30     kernel32:KERNEL32.dll
 0005:00000b34       __imp__CloseHandle@4       00429b34     kernel32:KERNEL32.dll
 0005:00000b38       __imp__MulDiv@12           00429b38     kernel32:KERNEL32.dll
 0005:00000b3c       __imp__GetTickCount@0      00429b3c     kernel32:KERNEL32.dll
 0005:00000b40       __imp__GetCurrentThreadId@0 00429b40     kernel32:KERNEL32.dll
 0005:00000b44       __imp__GetCurrentProcessId@0 00429b44     kernel32:KERNEL32.dll
 0005:00000b48       __imp__GetSystemTimeAsFileTime@4 00429b48     kernel32:KERNEL32.dll
 0005:00000b4c       __imp__IsDebuggerPresent@0 00429b4c     kernel32:KERNEL32.dll
 0005:00000b50       __imp__RaiseException@16   00429b50     kernel32:KERNEL32.dll
 0005:00000b54       __imp__DebugBreak@0        00429b54     kernel32:KERNEL32.dll
 0005:00000b58       __imp__WideCharToMultiByte@32 00429b58     kernel32:KERNEL32.dll
 0005:00000b5c       __imp__MultiByteToWideChar@24 00429b5c     kernel32:KERNEL32.dll
 0005:00000b60       __imp__lstrlenA@4          00429b60     kernel32:KERNEL32.dll
 0005:00000b64       __imp__GetProcAddress@8    00429b64     kernel32:KERNEL32.dll
 0005:00000b68       __imp__LoadLibraryA@4      00429b68     kernel32:KERNEL32.dll
 0005:00000b6c       __imp__TerminateProcess@8  00429b6c     kernel32:KERNEL32.dll
 0005:00000b70       __imp__GetCurrentProcess@0 00429b70     kernel32:KERNEL32.dll
 0005:00000b74       __imp__UnhandledExceptionFilter@4 00429b74     kernel32:KERNEL32.dll
 0005:00000b78       __imp__HeapFree@12         00429b78     kernel32:KERNEL32.dll
 0005:00000b7c       __imp__InterlockedExchange@8 00429b7c     kernel32:KERNEL32.dll
 0005:00000b80       __imp__HeapAlloc@12        00429b80     kernel32:KERNEL32.dll
 0005:00000b84       __imp__GetModuleFileNameW@12 00429b84     kernel32:KERNEL32.dll
 0005:00000b88       __imp__VirtualQuery@12     00429b88     kernel32:KERNEL32.dll
 0005:00000b8c       __imp__FreeLibrary@4       00429b8c     kernel32:KERNEL32.dll
 0005:00000b90       \177KERNEL32_NULL_THUNK_DATA 00429b90     kernel32:KERNEL32.dll
 0005:00000bdc       __imp____set_app_type      00429bdc     msvcrtd:MSVCR90D.dll
 0005:00000be0       __imp___amsg_exit          00429be0     msvcrtd:MSVCR90D.dll
 0005:00000be4       __imp____wgetmainargs      00429be4     msvcrtd:MSVCR90D.dll
 0005:00000be8       __imp___exit               00429be8     msvcrtd:MSVCR90D.dll
 0005:00000bec       __imp___XcptFilter         00429bec     msvcrtd:MSVCR90D.dll
 0005:00000bf0       __imp___cexit              00429bf0     msvcrtd:MSVCR90D.dll
 0005:00000bf4       __imp___encode_pointer     00429bf4     msvcrtd:MSVCR90D.dll
 0005:00000bf8       __imp____p__fmode          00429bf8     msvcrtd:MSVCR90D.dll
 0005:00000bfc       __imp___snprintf_s         00429bfc     msvcrtd:MSVCR90D.dll
 0005:00000c00       __imp___errno              00429c00     msvcrtd:MSVCR90D.dll
 0005:00000c04       __imp____CxxFrameHandler3  00429c04     msvcrtd:MSVCR90D.dll
 0005:00000c08       __imp___CxxThrowException@8 00429c08     msvcrtd:MSVCR90D.dll
 0005:00000c0c       __imp__free                00429c0c     msvcrtd:MSVCR90D.dll
 0005:00000c10       __imp__strcpy              00429c10     msvcrtd:MSVCR90D.dll
 0005:00000c14       __imp__wcscpy              00429c14     msvcrtd:MSVCR90D.dll
 0005:00000c18       __imp___vsnprintf_s        00429c18     msvcrtd:MSVCR90D.dll
 0005:00000c1c       __imp__memset              00429c1c     msvcrtd:MSVCR90D.dll
 0005:00000c20       __imp___vsnwprintf_s       00429c20     msvcrtd:MSVCR90D.dll
 0005:00000c24       __imp___snwprintf_s        00429c24     msvcrtd:MSVCR90D.dll
 0005:00000c28       __imp__wcscpy_s            00429c28     msvcrtd:MSVCR90D.dll
 0005:00000c2c       __imp__wcsncpy_s           00429c2c     msvcrtd:MSVCR90D.dll
 0005:00000c30       __imp__strcpy_s            00429c30     msvcrtd:MSVCR90D.dll
 0005:00000c34       __imp__calloc              00429c34     msvcrtd:MSVCR90D.dll
 0005:00000c38       __imp___recalloc           00429c38     msvcrtd:MSVCR90D.dll
 0005:00000c3c       __imp__memcmp              00429c3c     msvcrtd:MSVCR90D.dll
 0005:00000c40       __imp___wcsicmp            00429c40     msvcrtd:MSVCR90D.dll
 0005:00000c44       __imp__memmove_s           00429c44     msvcrtd:MSVCR90D.dll
 0005:00000c48       __imp__wcslen              00429c48     msvcrtd:MSVCR90D.dll
 0005:00000c4c       __imp____p__commode        00429c4c     msvcrtd:MSVCR90D.dll
 0005:00000c50       __imp___adjust_fdiv        00429c50     msvcrtd:MSVCR90D.dll
 0005:00000c54       __imp____setusermatherr    00429c54     msvcrtd:MSVCR90D.dll
 0005:00000c58       __imp___configthreadlocale 00429c58     msvcrtd:MSVCR90D.dll
 0005:00000c5c       __imp_??_V@YAXPAX@Z        00429c5c     msvcrtd:MSVCR90D.dll
 0005:00000c60       __imp___CrtDbgReport       00429c60     msvcrtd:MSVCR90D.dll
 0005:00000c64       __imp___crt_debugger_hook  00429c64     msvcrtd:MSVCR90D.dll
 0005:00000c68       __imp_?_type_info_dtor_internal_method@type_info@@QAEXXZ 00429c68     msvcrtd:MSVCR90D.dll
 0005:00000c6c       __imp___except_handler4_common 00429c6c     msvcrtd:MSVCR90D.dll
 0005:00000c70       __imp___invoke_watson      00429c70     msvcrtd:MSVCR90D.dll
 0005:00000c74       __imp___controlfp_s        00429c74     msvcrtd:MSVCR90D.dll
 0005:00000c78       __imp_?terminate@@YAXXZ    00429c78     msvcrtd:MSVCR90D.dll
 0005:00000c7c       __imp___decode_pointer     00429c7c     msvcrtd:MSVCR90D.dll
 0005:00000c80       __imp___onexit             00429c80     msvcrtd:MSVCR90D.dll
 0005:00000c84       __imp___lock               00429c84     msvcrtd:MSVCR90D.dll
 0005:00000c88       __imp____dllonexit         00429c88     msvcrtd:MSVCR90D.dll
 0005:00000c8c       __imp___unlock             00429c8c     msvcrtd:MSVCR90D.dll
 0005:00000c90       __imp___CRT_RTC_INITW      00429c90     msvcrtd:MSVCR90D.dll
 0005:00000c94       __imp___initterm_e         00429c94     msvcrtd:MSVCR90D.dll
 0005:00000c98       __imp___initterm           00429c98     msvcrtd:MSVCR90D.dll
 0005:00000c9c       __imp___CrtDbgReportW      00429c9c     msvcrtd:MSVCR90D.dll
 0005:00000ca0       __imp___CrtSetCheckCount   00429ca0     msvcrtd:MSVCR90D.dll
 0005:00000ca4       __imp___wcmdln             00429ca4     msvcrtd:MSVCR90D.dll
 0005:00000ca8       __imp__exit                00429ca8     msvcrtd:MSVCR90D.dll
 0005:00000cac       \177MSVCR90D_NULL_THUNK_DATA 00429cac     msvcrtd:MSVCR90D.dll
 0005:00000d00       __imp__SysFreeString@4     00429d00     oleaut32:OLEAUT32.dll
 0005:00000d04       \177OLEAUT32_NULL_THUNK_DATA 00429d04     oleaut32:OLEAUT32.dll
 0005:00000d30       __imp__glLoadIdentity@0    00429d30     OpenGL32:OPENGL32.dll
 0005:00000d34       __imp__glMatrixMode@4      00429d34     OpenGL32:OPENGL32.dll
 0005:00000d38       __imp__glViewport@16       00429d38     OpenGL32:OPENGL32.dll
 0005:00000d3c       __imp__wglMakeCurrent@8    00429d3c     OpenGL32:OPENGL32.dll
 0005:00000d40       __imp__wglCreateContext@4  00429d40     OpenGL32:OPENGL32.dll
 0005:00000d44       __imp__glClear@4           00429d44     OpenGL32:OPENGL32.dll
 0005:00000d48       __imp__glShadeModel@4      00429d48     OpenGL32:OPENGL32.dll
 0005:00000d4c       __imp__glEnable@4          00429d4c     OpenGL32:OPENGL32.dll
 0005:00000d50       __imp__glDepthFunc@4       00429d50     OpenGL32:OPENGL32.dll
 0005:00000d54       __imp__glClearColor@16     00429d54     OpenGL32:OPENGL32.dll
 0005:00000d58       __imp__glClearDepth@8      00429d58     OpenGL32:OPENGL32.dll
 0005:00000d5c       __imp__glFinish@0          00429d5c     OpenGL32:OPENGL32.dll
 0005:00000d60       \177OPENGL32_NULL_THUNK_DATA 00429d60     OpenGL32:OPENGL32.dll
 0005:00000d94       __imp__UnionRect@12        00429d94     user32:USER32.dll
 0005:00000d98       __imp__IntersectRect@12    00429d98     user32:USER32.dll
 0005:00000d9c       __imp__OffsetRect@12       00429d9c     user32:USER32.dll
 0005:00000da0       __imp__InflateRect@12      00429da0     user32:USER32.dll
 0005:00000da4       __imp__EqualRect@8         00429da4     user32:USER32.dll
 0005:00000da8       __imp__SetRectEmpty@4      00429da8     user32:USER32.dll
 0005:00000dac       __imp__SetRect@20          00429dac     user32:USER32.dll
 0005:00000db0       __imp__PtInRect@12         00429db0     user32:USER32.dll
 0005:00000db4       __imp__IsRectEmpty@4       00429db4     user32:USER32.dll
 0005:00000db8       __imp__CopyRect@8          00429db8     user32:USER32.dll
 0005:00000dbc       __imp__SubtractRect@12     00429dbc     user32:USER32.dll
 0005:00000dc0       \177USER32_NULL_THUNK_DATA 00429dc0     user32:USER32.dll
 0005:00000df4       __imp_?EndModalState@CWnd@@UAEXXZ 00429df4     mfc90ud:mfc90ud.dll
 0005:00000df8       __imp_?PreTranslateMessage@CDialog@@UAEHPAUtagMSG@@@Z 00429df8     mfc90ud:mfc90ud.dll
 0005:00000dfc       __imp_?OnAmbientProperty@CWnd@@UAEHPAVCOleControlSite@@JPAUtagVARIANT@@@Z 00429dfc     mfc90ud:mfc90ud.dll
 0005:00000e00       __imp_?WindowProc@CWnd@@MAEJIIJ@Z 00429e00     mfc90ud:mfc90ud.dll
 0005:00000e04       __imp_?OnWndMsg@CWnd@@MAEHIIJPAJ@Z 00429e04     mfc90ud:mfc90ud.dll
 0005:00000e08       __imp_?DefWindowProcW@CWnd@@MAEJIIJ@Z 00429e08     mfc90ud:mfc90ud.dll
 0005:00000e0c       __imp_?PostNcDestroy@CWnd@@MAEXXZ 00429e0c     mfc90ud:mfc90ud.dll
 0005:00000e10       __imp_?OnChildNotify@CWnd@@MAEHIIJPAJ@Z 00429e10     mfc90ud:mfc90ud.dll
 0005:00000e14       __imp_?CheckAutoCenter@CDialog@@UAEHXZ 00429e14     mfc90ud:mfc90ud.dll
 0005:00000e18       __imp_?IsFrameWnd@CWnd@@UBEHXZ 00429e18     mfc90ud:mfc90ud.dll
 0005:00000e1c       __imp_?CreateControlContainer@CWnd@@MAEHPAPAVCOleControlContainer@@@Z 00429e1c     mfc90ud:mfc90ud.dll
 0005:00000e20       __imp_?CreateControlSite@CWnd@@MAEHPAVCOleControlContainer@@PAPAVCOleControlSite@@IABU_GUID@@@Z 00429e20     mfc90ud:mfc90ud.dll
 0005:00000e24       __imp_?SetOccDialogInfo@CDialog@@MAEHPAU_AFX_OCC_DIALOG_INFO@@@Z 00429e24     mfc90ud:mfc90ud.dll
 0005:00000e28       __imp_?GetOccDialogInfo@CDialog@@MAEPAU_AFX_OCC_DIALOG_INFO@@XZ 00429e28     mfc90ud:mfc90ud.dll
 0005:00000e2c       __imp_?Create@CDialog@@UAEHIPAVCWnd@@@Z 00429e2c     mfc90ud:mfc90ud.dll
 0005:00000e30       __imp_?Create@CDialog@@UAEHPB_WPAVCWnd@@@Z 00429e30     mfc90ud:mfc90ud.dll
 0005:00000e34       __imp_?CreateIndirect@CDialog@@UAEHPAXPAVCWnd@@@Z 00429e34     mfc90ud:mfc90ud.dll
 0005:00000e38       __imp_?CreateIndirect@CDialog@@UAEHPBUDLGTEMPLATE@@PAVCWnd@@PAX@Z 00429e38     mfc90ud:mfc90ud.dll
 0005:00000e3c       __imp_?DoModal@CDialog@@UAEHXZ 00429e3c     mfc90ud:mfc90ud.dll
 0005:00000e40       __imp_?OnInitDialog@CDialog@@UAEHXZ 00429e40     mfc90ud:mfc90ud.dll
 0005:00000e44       __imp_?OnSetFont@CDialog@@UAEXPAVCFont@@@Z 00429e44     mfc90ud:mfc90ud.dll
 0005:00000e48       __imp_?OnOK@CDialog@@MAEXXZ 00429e48     mfc90ud:mfc90ud.dll
 0005:00000e4c       __imp_?OnCancel@CDialog@@MAEXXZ 00429e4c     mfc90ud:mfc90ud.dll
 0005:00000e50       __imp_?PreInitDialog@CDialog@@MAEXXZ 00429e50     mfc90ud:mfc90ud.dll
 0005:00000e54       __imp_??1CDialog@@UAE@XZ   00429e54     mfc90ud:mfc90ud.dll
 0005:00000e58       __imp_?DoDataExchange@CWnd@@MAEXPAVCDataExchange@@@Z 00429e58     mfc90ud:mfc90ud.dll
 0005:00000e5c       __imp_?GetThisMessageMap@CDocument@@KGPBUAFX_MSGMAP@@XZ 00429e5c     mfc90ud:mfc90ud.dll
 0005:00000e60       __imp_?GetThisClass@CDocument@@SGPAUCRuntimeClass@@XZ 00429e60     mfc90ud:mfc90ud.dll
 0005:00000e64       __imp_??0CDocument@@QAE@XZ 00429e64     mfc90ud:mfc90ud.dll
 0005:00000e68       __imp_?OnCmdMsg@CDocument@@UAEHIHPAXPAUAFX_CMDHANDLERINFO@@@Z 00429e68     mfc90ud:mfc90ud.dll
 0005:00000e6c       __imp_?OnFinalRelease@CDocument@@UAEXXZ 00429e6c     mfc90ud:mfc90ud.dll
 0005:00000e70       __imp_?SetTitle@CDocument@@UAEXPB_W@Z 00429e70     mfc90ud:mfc90ud.dll
 0005:00000e74       __imp_?SetPathName@CDocument@@UAEXPB_WH@Z 00429e74     mfc90ud:mfc90ud.dll
 0005:00000e78       __imp_?IsModified@CDocument@@UAEHXZ 00429e78     mfc90ud:mfc90ud.dll
 0005:00000e7c       __imp_?SetModifiedFlag@CDocument@@UAEXH@Z 00429e7c     mfc90ud:mfc90ud.dll
 0005:00000e80       __imp_?GetFirstViewPosition@CDocument@@UBEPAU__POSITION@@XZ 00429e80     mfc90ud:mfc90ud.dll
 0005:00000e84       __imp_?GetNextView@CDocument@@UBEPAVCView@@AAPAU__POSITION@@@Z 00429e84     mfc90ud:mfc90ud.dll
 0005:00000e88       __imp_?OnChangedViewList@CDocument@@UAEXXZ 00429e88     mfc90ud:mfc90ud.dll
 0005:00000e8c       __imp_?DeleteContents@CDocument@@UAEXXZ 00429e8c     mfc90ud:mfc90ud.dll
 0005:00000e90       __imp_?OnOpenDocument@CDocument@@UAEHPB_W@Z 00429e90     mfc90ud:mfc90ud.dll
 0005:00000e94       __imp_?OnSaveDocument@CDocument@@UAEHPB_W@Z 00429e94     mfc90ud:mfc90ud.dll
 0005:00000e98       __imp_?OnCloseDocument@CDocument@@UAEXXZ 00429e98     mfc90ud:mfc90ud.dll
 0005:00000e9c       __imp_?ReportSaveLoadException@CDocument@@UAEXPB_WPAVCException@@HI@Z 00429e9c     mfc90ud:mfc90ud.dll
 0005:00000ea0       __imp_?GetFile@CDocument@@UAEPAVCFile@@PB_WIPAVCFileException@@@Z 00429ea0     mfc90ud:mfc90ud.dll
 0005:00000ea4       __imp_?ReleaseFile@CDocument@@UAEXPAVCFile@@H@Z 00429ea4     mfc90ud:mfc90ud.dll
 0005:00000ea8       __imp_?CanCloseFrame@CDocument@@UAEHPAVCFrameWnd@@@Z 00429ea8     mfc90ud:mfc90ud.dll
 0005:00000eac       __imp_?SaveModified@CDocument@@UAEHXZ 00429eac     mfc90ud:mfc90ud.dll
 0005:00000eb0       __imp_?PreCloseFrame@CDocument@@UAEXPAVCFrameWnd@@@Z 00429eb0     mfc90ud:mfc90ud.dll
 0005:00000eb4       __imp_?DoSave@CDocument@@UAEHPB_WH@Z 00429eb4     mfc90ud:mfc90ud.dll
 0005:00000eb8       __imp_?DoFileSave@CDocument@@UAEHXZ 00429eb8     mfc90ud:mfc90ud.dll
 0005:00000ebc       __imp_?UpdateFrameCounts@CDocument@@UAEXXZ 00429ebc     mfc90ud:mfc90ud.dll
 0005:00000ec0       __imp_?GetDefaultMenu@CDocument@@UAEPAUHMENU__@@XZ 00429ec0     mfc90ud:mfc90ud.dll
 0005:00000ec4       __imp_?GetDefaultAccelerator@CDocument@@UAEPAUHACCEL__@@XZ 00429ec4     mfc90ud:mfc90ud.dll
 0005:00000ec8       __imp_?OnIdle@CDocument@@UAEXXZ 00429ec8     mfc90ud:mfc90ud.dll
 0005:00000ecc       __imp_??1CDocument@@UAE@XZ 00429ecc     mfc90ud:mfc90ud.dll
 0005:00000ed0       __imp_?OnNewDocument@CDocument@@UAEHXZ 00429ed0     mfc90ud:mfc90ud.dll
 0005:00000ed4       __imp_?IsStoring@CArchive@@QBEHXZ 00429ed4     mfc90ud:mfc90ud.dll
 0005:00000ed8       __imp_?AssertValid@CDocument@@UBEXXZ 00429ed8     mfc90ud:mfc90ud.dll
 0005:00000edc       __imp_?Dump@CDocument@@UBEXAAVCDumpContext@@@Z 00429edc     mfc90ud:mfc90ud.dll
 0005:00000ee0       __imp_?GetThisMessageMap@CView@@KGPBUAFX_MSGMAP@@XZ 00429ee0     mfc90ud:mfc90ud.dll
 0005:00000ee4       __imp_?OnFilePrintPreview@CView@@IAEXXZ 00429ee4     mfc90ud:mfc90ud.dll
 0005:00000ee8       __imp_?OnFilePrint@CView@@IAEXXZ 00429ee8     mfc90ud:mfc90ud.dll
 0005:00000eec       __imp_?GetThisClass@CView@@SGPAUCRuntimeClass@@XZ 00429eec     mfc90ud:mfc90ud.dll
 0005:00000ef0       __imp_??0CView@@IAE@XZ     00429ef0     mfc90ud:mfc90ud.dll
 0005:00000ef4       __imp_?OnCmdMsg@CView@@UAEHIHPAXPAUAFX_CMDHANDLERINFO@@@Z 00429ef4     mfc90ud:mfc90ud.dll
 0005:00000ef8       __imp_?CalcWindowRect@CView@@UAEXPAUtagRECT@@I@Z 00429ef8     mfc90ud:mfc90ud.dll
 0005:00000efc       __imp_?GetScrollBarCtrl@CView@@UBEPAVCScrollBar@@H@Z 00429efc     mfc90ud:mfc90ud.dll
 0005:00000f00       __imp_?PreTranslateMessage@CWnd@@UAEHPAUtagMSG@@@Z 00429f00     mfc90ud:mfc90ud.dll
 0005:00000f04       __imp_?PostNcDestroy@CView@@MAEXXZ 00429f04     mfc90ud:mfc90ud.dll
 0005:00000f08       __imp_?accSelect@CWnd@@UAEJJUtagVARIANT@@@Z 00429f08     mfc90ud:mfc90ud.dll
 0005:00000f0c       __imp_?SetOccDialogInfo@CWnd@@MAEHPAU_AFX_OCC_DIALOG_INFO@@@Z 00429f0c     mfc90ud:mfc90ud.dll
 0005:00000f10       __imp_?GetOccDialogInfo@CWnd@@MAEPAU_AFX_OCC_DIALOG_INFO@@XZ 00429f10     mfc90ud:mfc90ud.dll
 0005:00000f14       __imp_?IsSelected@CView@@UBEHPBVCObject@@@Z 00429f14     mfc90ud:mfc90ud.dll
 0005:00000f18       __imp_?OnScroll@CView@@UAEHIIH@Z 00429f18     mfc90ud:mfc90ud.dll
 0005:00000f1c       __imp_?OnScrollBy@CView@@UAEHVCSize@@H@Z 00429f1c     mfc90ud:mfc90ud.dll
 0005:00000f20       __imp_?OnDragEnter@CView@@UAEKPAVCOleDataObject@@KVCPoint@@@Z 00429f20     mfc90ud:mfc90ud.dll
 0005:00000f24       __imp_?OnDragOver@CView@@UAEKPAVCOleDataObject@@KVCPoint@@@Z 00429f24     mfc90ud:mfc90ud.dll
 0005:00000f28       __imp_?OnDragLeave@CView@@UAEXXZ 00429f28     mfc90ud:mfc90ud.dll
 0005:00000f2c       __imp_?OnDrop@CView@@UAEHPAVCOleDataObject@@KVCPoint@@@Z 00429f2c     mfc90ud:mfc90ud.dll
 0005:00000f30       __imp_?OnDropEx@CView@@UAEKPAVCOleDataObject@@KKVCPoint@@@Z 00429f30     mfc90ud:mfc90ud.dll
 0005:00000f34       __imp_?OnDragScroll@CView@@UAEKKVCPoint@@@Z 00429f34     mfc90ud:mfc90ud.dll
 0005:00000f38       __imp_?OnPrepareDC@CView@@UAEXPAVCDC@@PAUCPrintInfo@@@Z 00429f38     mfc90ud:mfc90ud.dll
 0005:00000f3c       __imp_?OnInitialUpdate@CView@@UAEXXZ 00429f3c     mfc90ud:mfc90ud.dll
 0005:00000f40       __imp_?OnActivateView@CView@@MAEXHPAV1@0@Z 00429f40     mfc90ud:mfc90ud.dll
 0005:00000f44       __imp_?OnActivateFrame@CView@@MAEXIPAVCFrameWnd@@@Z 00429f44     mfc90ud:mfc90ud.dll
 0005:00000f48       __imp_?OnUpdate@CView@@MAEXPAV1@JPAVCObject@@@Z 00429f48     mfc90ud:mfc90ud.dll
 0005:00000f4c       __imp_?OnPrint@CView@@MAEXPAVCDC@@PAUCPrintInfo@@@Z 00429f4c     mfc90ud:mfc90ud.dll
 0005:00000f50       __imp_?OnEndPrintPreview@CView@@MAEXPAVCDC@@PAUCPrintInfo@@UtagPOINT@@PAVCPreviewView@@@Z 00429f50     mfc90ud:mfc90ud.dll
 0005:00000f54       __imp_??1CView@@UAE@XZ     00429f54     mfc90ud:mfc90ud.dll
 0005:00000f58       __imp_?PreCreateWindow@CView@@MAEHAAUtagCREATESTRUCTW@@@Z 00429f58     mfc90ud:mfc90ud.dll
 0005:00000f5c       __imp_?GetSafeHdc@CDC@@QBEPAUHDC__@@XZ 00429f5c     mfc90ud:mfc90ud.dll
 0005:00000f60       __imp_?AfxAssertValidObject@@YGXPBVCObject@@PBDH@Z 00429f60     mfc90ud:mfc90ud.dll
 0005:00000f64       __imp_?DoPreparePrinting@CView@@QAEHPAUCPrintInfo@@@Z 00429f64     mfc90ud:mfc90ud.dll
 0005:00000f68       __imp_?AssertValid@CView@@UBEXXZ 00429f68     mfc90ud:mfc90ud.dll
 0005:00000f6c       __imp_?Dump@CView@@UBEXAAVCDumpContext@@@Z 00429f6c     mfc90ud:mfc90ud.dll
 0005:00000f70       __imp_?AfxAssertFailedLine@@YGHPBDH@Z 00429f70     mfc90ud:mfc90ud.dll
 0005:00000f74       __imp_?IsKindOf@CObject@@QBEHPBUCRuntimeClass@@@Z 00429f74     mfc90ud:mfc90ud.dll
 0005:00000f78       __imp_?OnCreate@CView@@IAEHPAUtagCREATESTRUCTW@@@Z 00429f78     mfc90ud:mfc90ud.dll
 0005:00000f7c       __imp_?MessageBoxW@CWnd@@QAEHPB_W0I@Z 00429f7c     mfc90ud:mfc90ud.dll
 0005:00000f80       __imp_?OnDestroy@CView@@IAEXXZ 00429f80     mfc90ud:mfc90ud.dll
 0005:00000f84       __imp_?OnSize@CWnd@@IAEXIHH@Z 00429f84     mfc90ud:mfc90ud.dll
 0005:00000f88       __imp_?OnEraseBkgnd@CWnd@@IAEHPAVCDC@@@Z 00429f88     mfc90ud:mfc90ud.dll
 0005:00000f8c       __imp_?AfxMessageBox@@YGHPB_WII@Z 00429f8c     mfc90ud:mfc90ud.dll
 0005:00000f90       __imp_??0CClientDC@@QAE@PAVCWnd@@@Z 00429f90     mfc90ud:mfc90ud.dll
 0005:00000f94       __imp_?GetThisMessageMap@CFrameWnd@@KGPBUAFX_MSGMAP@@XZ 00429f94     mfc90ud:mfc90ud.dll
 0005:00000f98       __imp_?GetThisClass@CFrameWnd@@SGPAUCRuntimeClass@@XZ 00429f98     mfc90ud:mfc90ud.dll
 0005:00000f9c       __imp_??1CStatusBar@@UAE@XZ 00429f9c     mfc90ud:mfc90ud.dll
 0005:00000fa0       __imp_??1CFrameWnd@@UAE@XZ 00429fa0     mfc90ud:mfc90ud.dll
 0005:00000fa4       __imp_??0CToolBar@@QAE@XZ  00429fa4     mfc90ud:mfc90ud.dll
 0005:00000fa8       __imp_??0CStatusBar@@QAE@XZ 00429fa8     mfc90ud:mfc90ud.dll
 0005:00000fac       __imp_??0CFrameWnd@@QAE@XZ 00429fac     mfc90ud:mfc90ud.dll
 0005:00000fb0       __imp_?OnCmdMsg@CFrameWnd@@UAEHIHPAXPAUAFX_CMDHANDLERINFO@@@Z 00429fb0     mfc90ud:mfc90ud.dll
 0005:00000fb4       __imp_?GetMenu@CFrameWnd@@UBEPAVCMenu@@XZ 00429fb4     mfc90ud:mfc90ud.dll
 0005:00000fb8       __imp_?SetMenu@CFrameWnd@@UAEHPAVCMenu@@@Z 00429fb8     mfc90ud:mfc90ud.dll
 0005:00000fbc       __imp_?OnCommand@CFrameWnd@@MAEHIJ@Z 00429fbc     mfc90ud:mfc90ud.dll
 0005:00000fc0       __imp_?BeginModalState@CFrameWnd@@UAEXXZ 00429fc0     mfc90ud:mfc90ud.dll
 0005:00000fc4       __imp_?EndModalState@CFrameWnd@@UAEXXZ 00429fc4     mfc90ud:mfc90ud.dll
 0005:00000fc8       __imp_?PreTranslateMessage@CFrameWnd@@UAEHPAUtagMSG@@@Z 00429fc8     mfc90ud:mfc90ud.dll
 0005:00000fcc       __imp_?PostNcDestroy@CFrameWnd@@MAEXXZ 00429fcc     mfc90ud:mfc90ud.dll
 0005:00000fd0       __imp_?IsFrameWnd@CFrameWnd@@UBEHXZ 00429fd0     mfc90ud:mfc90ud.dll
 0005:00000fd4       __imp_?Create@CFrameWnd@@UAEHPB_W0KABUtagRECT@@PAVCWnd@@0KPAUCCreateContext@@@Z 00429fd4     mfc90ud:mfc90ud.dll
 0005:00000fd8       __imp_?LoadFrame@CFrameWnd@@UAEHIKPAVCWnd@@PAUCCreateContext@@@Z 00429fd8     mfc90ud:mfc90ud.dll
 0005:00000fdc       __imp_?GetActiveDocument@CFrameWnd@@UAEPAVCDocument@@XZ 00429fdc     mfc90ud:mfc90ud.dll
 0005:00000fe0       __imp_?GetActiveFrame@CFrameWnd@@UAEPAV1@XZ 00429fe0     mfc90ud:mfc90ud.dll
 0005:00000fe4       __imp_?GetMessageString@CFrameWnd@@UBEXIAAV?$CStringT@_WV?$StrTraitMFC_DLL@_WV?$ChTraitsCRT@_W@ATL@@@@@ATL@@@Z 00429fe4     mfc90ud:mfc90ud.dll
 0005:00000fe8       __imp_?RecalcLayout@CFrameWnd@@UAEXH@Z 00429fe8     mfc90ud:mfc90ud.dll
 0005:00000fec       __imp_?ActivateFrame@CFrameWnd@@UAEXH@Z 00429fec     mfc90ud:mfc90ud.dll
 0005:00000ff0       __imp_?SetMenuBarVisibility@CFrameWnd@@UAEXK@Z 00429ff0     mfc90ud:mfc90ud.dll
 0005:00000ff4       __imp_?GetMenuBarVisibility@CFrameWnd@@UBEKXZ 00429ff4     mfc90ud:mfc90ud.dll
 0005:00000ff8       __imp_?BeginModalState@CWnd@@UAEXXZ 00429ff8     mfc90ud:mfc90ud.dll
 0005:00000ffc       __imp_?GetMenuBarState@CFrameWnd@@UBEKXZ 00429ffc     mfc90ud:mfc90ud.dll
 0005:00001000       __imp_?OnSetPreviewMode@CFrameWnd@@UAEXHPAUCPrintPreviewState@@@Z 0042a000     mfc90ud:mfc90ud.dll
 0005:00001004       __imp_?GetMessageBar@CFrameWnd@@UAEPAVCWnd@@XZ 0042a004     mfc90ud:mfc90ud.dll
 0005:00001008       __imp_?NegotiateBorderSpace@CFrameWnd@@UAEHIPAUtagRECT@@@Z 0042a008     mfc90ud:mfc90ud.dll
 0005:0000100c       __imp_?OnCreateClient@CFrameWnd@@MAEHPAUtagCREATESTRUCTW@@PAUCCreateContext@@@Z 0042a00c     mfc90ud:mfc90ud.dll
 0005:00001010       __imp_?OnUpdateFrameTitle@CFrameWnd@@UAEXH@Z 0042a010     mfc90ud:mfc90ud.dll
 0005:00001014       __imp_?OnUpdateFrameMenu@CFrameWnd@@UAEXPAUHMENU__@@@Z 0042a014     mfc90ud:mfc90ud.dll
 0005:00001018       __imp_?GetDefaultAccelerator@CFrameWnd@@UAEPAUHACCEL__@@XZ 0042a018     mfc90ud:mfc90ud.dll
 0005:0000101c       __imp_?DelayUpdateFrameMenu@CFrameWnd@@UAEXPAUHMENU__@@@Z 0042a01c     mfc90ud:mfc90ud.dll
 0005:00001020       __imp_?ExitHelpMode@CFrameWnd@@UAEXXZ 0042a020     mfc90ud:mfc90ud.dll
 0005:00001024       __imp_?OnShowMenuBar@CFrameWnd@@MAEXXZ 0042a024     mfc90ud:mfc90ud.dll
 0005:00001028       __imp_?OnHideMenuBar@CFrameWnd@@MAEXXZ 0042a028     mfc90ud:mfc90ud.dll
 0005:0000102c       __imp_??1CToolBar@@UAE@XZ  0042a02c     mfc90ud:mfc90ud.dll
 0005:00001030       __imp_?DockControlBar@CFrameWnd@@QAEXPAVCControlBar@@IPBUtagRECT@@@Z 0042a030     mfc90ud:mfc90ud.dll
 0005:00001034       __imp_?EnableDocking@CFrameWnd@@QAEXK@Z 0042a034     mfc90ud:mfc90ud.dll
 0005:00001038       __imp_?EnableDocking@CControlBar@@QAEXK@Z 0042a038     mfc90ud:mfc90ud.dll
 0005:0000103c       __imp_?SetIndicators@CStatusBar@@QAEHPBIH@Z 0042a03c     mfc90ud:mfc90ud.dll
 0005:00001040       __imp_?LoadToolBar@CToolBar@@QAEHI@Z 0042a040     mfc90ud:mfc90ud.dll
 0005:00001044       __imp_?OnCreate@CFrameWnd@@IAEHPAUtagCREATESTRUCTW@@@Z 0042a044     mfc90ud:mfc90ud.dll
 0005:00001048       __imp_?PreCreateWindow@CFrameWnd@@MAEHAAUtagCREATESTRUCTW@@@Z 0042a048     mfc90ud:mfc90ud.dll
 0005:0000104c       __imp_?AssertValid@CFrameWnd@@UBEXXZ 0042a04c     mfc90ud:mfc90ud.dll
 0005:00001050       __imp_?Dump@CFrameWnd@@UBEXAAVCDumpContext@@@Z 0042a050     mfc90ud:mfc90ud.dll
 0005:00001054       __imp_?get_accDefaultAction@CWnd@@UAEJUtagVARIANT@@PAPA_W@Z 0042a054     mfc90ud:mfc90ud.dll
 0005:00001058       __imp_?get_accSelection@CWnd@@UAEJPAUtagVARIANT@@@Z 0042a058     mfc90ud:mfc90ud.dll
 0005:0000105c       __imp_?get_accFocus@CWnd@@UAEJPAUtagVARIANT@@@Z 0042a05c     mfc90ud:mfc90ud.dll
 0005:00001060       __imp_?get_accKeyboardShortcut@CWnd@@UAEJUtagVARIANT@@PAPA_W@Z 0042a060     mfc90ud:mfc90ud.dll
 0005:00001064       __imp_?get_accHelpTopic@CWnd@@UAEJPAPA_WUtagVARIANT@@PAJ@Z 0042a064     mfc90ud:mfc90ud.dll
 0005:00001068       __imp_?get_accHelp@CWnd@@UAEJUtagVARIANT@@PAPA_W@Z 0042a068     mfc90ud:mfc90ud.dll
 0005:0000106c       __imp_?get_accState@CWnd@@UAEJUtagVARIANT@@PAU2@@Z 0042a06c     mfc90ud:mfc90ud.dll
 0005:00001070       __imp_?get_accRole@CWnd@@UAEJUtagVARIANT@@PAU2@@Z 0042a070     mfc90ud:mfc90ud.dll
 0005:00001074       __imp_?get_accDescription@CWnd@@UAEJUtagVARIANT@@PAPA_W@Z 0042a074     mfc90ud:mfc90ud.dll
 0005:00001078       __imp_?get_accValue@CWnd@@UAEJUtagVARIANT@@PAPA_W@Z 0042a078     mfc90ud:mfc90ud.dll
 0005:0000107c       __imp_?get_accName@CWnd@@UAEJUtagVARIANT@@PAPA_W@Z 0042a07c     mfc90ud:mfc90ud.dll
 0005:00001080       __imp_?get_accChild@CWnd@@UAEJUtagVARIANT@@PAPAUIDispatch@@@Z 0042a080     mfc90ud:mfc90ud.dll
 0005:00001084       __imp_?get_accChildCount@CWnd@@UAEJPAJ@Z 0042a084     mfc90ud:mfc90ud.dll
 0005:00001088       __imp_?get_accParent@CWnd@@UAEJPAPAUIDispatch@@@Z 0042a088     mfc90ud:mfc90ud.dll
 0005:0000108c       __imp_?EnsureStdObj@CWnd@@UAEJXZ 0042a08c     mfc90ud:mfc90ud.dll
 0005:00001090       __imp_?EndModalLoop@CWnd@@UAEXH@Z 0042a090     mfc90ud:mfc90ud.dll
 0005:00001094       __imp_?ContinueModal@CWnd@@UAEHXZ 0042a094     mfc90ud:mfc90ud.dll
 0005:00001098       __imp_?WinHelpInternal@CWnd@@UAEXKI@Z 0042a098     mfc90ud:mfc90ud.dll
 0005:0000109c       __imp_?HtmlHelpW@CWnd@@UAEXKI@Z 0042a09c     mfc90ud:mfc90ud.dll
 0005:000010a0       __imp_?WinHelpW@CWnd@@UAEXKI@Z 0042a0a0     mfc90ud:mfc90ud.dll
 0005:000010a4       __imp_?GetScrollBarCtrl@CWnd@@UBEPAVCScrollBar@@H@Z 0042a0a4     mfc90ud:mfc90ud.dll
 0005:000010a8       __imp_?OnToolHitTest@CWnd@@UBEHVCPoint@@PAUtagTOOLINFOW@@@Z 0042a0a8     mfc90ud:mfc90ud.dll
 0005:000010ac       __imp_?SetMenu@CWnd@@UAEHPAVCMenu@@@Z 0042a0ac     mfc90ud:mfc90ud.dll
 0005:000010b0       __imp_?GetMenu@CWnd@@UBEPAVCMenu@@XZ 0042a0b0     mfc90ud:mfc90ud.dll
 0005:000010b4       __imp_?CalcWindowRect@CWnd@@UAEXPAUtagRECT@@I@Z 0042a0b4     mfc90ud:mfc90ud.dll
 0005:000010b8       __imp_?PreCreateWindow@CWnd@@UAEHAAUtagCREATESTRUCTW@@@Z 0042a0b8     mfc90ud:mfc90ud.dll
 0005:000010bc       __imp_?DestroyWindow@CWnd@@UAEHXZ 0042a0bc     mfc90ud:mfc90ud.dll
 0005:000010c0       __imp_?CreateEx@CWnd@@UAEHKPB_W0KHHHHPAUHWND__@@PAUHMENU__@@PAX@Z 0042a0c0     mfc90ud:mfc90ud.dll
 0005:000010c4       __imp_?CreateEx@CWnd@@UAEHKPB_W0KABUtagRECT@@PAV1@IPAX@Z 0042a0c4     mfc90ud:mfc90ud.dll
 0005:000010c8       __imp_?Create@CWnd@@UAEHPB_W0KABUtagRECT@@PAV1@IPAUCCreateContext@@@Z 0042a0c8     mfc90ud:mfc90ud.dll
 0005:000010cc       __imp_?PreSubclassWindow@CWnd@@UAEXXZ 0042a0cc     mfc90ud:mfc90ud.dll
 0005:000010d0       __imp_?GetInterfaceMap@CWnd@@MBEPBUAFX_INTERFACEMAP@@XZ 0042a0d0     mfc90ud:mfc90ud.dll
 0005:000010d4       __imp_?OnFinalRelease@CWnd@@UAEXXZ 0042a0d4     mfc90ud:mfc90ud.dll
 0005:000010d8       __imp_?OnCmdMsg@CDialog@@UAEHIHPAXPAUAFX_CMDHANDLERINFO@@@Z 0042a0d8     mfc90ud:mfc90ud.dll
 0005:000010dc       __imp_?Dump@CDialog@@UBEXAAVCDumpContext@@@Z 0042a0dc     mfc90ud:mfc90ud.dll
 0005:000010e0       __imp_?AssertValid@CDialog@@UBEXXZ 0042a0e0     mfc90ud:mfc90ud.dll
 0005:000010e4       __imp_?GetRuntimeClass@CDialog@@UBEPAUCRuntimeClass@@XZ 0042a0e4     mfc90ud:mfc90ud.dll
 0005:000010e8       __imp_??0CDialog@@QAE@IPAVCWnd@@@Z 0042a0e8     mfc90ud:mfc90ud.dll
 0005:000010ec       __imp_?InitInstance@CWinApp@@UAEHXZ 0042a0ec     mfc90ud:mfc90ud.dll
 0005:000010f0       __imp_?AfxOleInit@@YGHXZ   0042a0f0     mfc90ud:mfc90ud.dll
 0005:000010f4       __imp_?AfxMessageBox@@YGHIII@Z 0042a0f4     mfc90ud:mfc90ud.dll
 0005:000010f8       __imp_?AfxEnableControlContainer@@YAXPAVCOccManager@@@Z 0042a0f8     mfc90ud:mfc90ud.dll
 0005:000010fc       __imp_?SetRegistryKey@CWinApp@@IAEXPB_W@Z 0042a0fc     mfc90ud:mfc90ud.dll
 0005:00001100       __imp_?LoadStdProfileSettings@CWinApp@@IAEXI@Z 0042a100     mfc90ud:mfc90ud.dll
 0005:00001104       __imp_??2CObject@@SGPAXIPBDH@Z 0042a104     mfc90ud:mfc90ud.dll
 0005:00001108       __imp_??0CSingleDocTemplate@@QAE@IPAUCRuntimeClass@@00@Z 0042a108     mfc90ud:mfc90ud.dll
 0005:0000110c       __imp_?AddDocTemplate@CWinApp@@QAEXPAVCDocTemplate@@@Z 0042a10c     mfc90ud:mfc90ud.dll
 0005:00001110       __imp_??0CCommandLineInfo@@QAE@XZ 0042a110     mfc90ud:mfc90ud.dll
 0005:00001114       __imp_?ParseCommandLine@CWinApp@@QAEXAAVCCommandLineInfo@@@Z 0042a114     mfc90ud:mfc90ud.dll
 0005:00001118       __imp_?ProcessShellCommand@CWinApp@@QAEHAAVCCommandLineInfo@@@Z 0042a118     mfc90ud:mfc90ud.dll
 0005:0000111c       __imp_??1CCommandLineInfo@@UAE@XZ 0042a11c     mfc90ud:mfc90ud.dll
 0005:00001120       __imp_?ShowWindow@CWnd@@QAEHH@Z 0042a120     mfc90ud:mfc90ud.dll
 0005:00001124       __imp_?UpdateWindow@CWnd@@QAEXXZ 0042a124     mfc90ud:mfc90ud.dll
 0005:00001128       __imp_??3CObject@@SGXPAXPBDH@Z 0042a128     mfc90ud:mfc90ud.dll
 0005:0000112c       __imp_??1CWinApp@@UAE@XZ   0042a12c     mfc90ud:mfc90ud.dll
 0005:00001130       __imp_??3CObject@@SGXPAX@Z 0042a130     mfc90ud:mfc90ud.dll
 0005:00001134       __imp_?LoadSysPolicies@CWinApp@@UAEHXZ 0042a134     mfc90ud:mfc90ud.dll
 0005:00001138       __imp_?LoadAppLangResourceDLL@CWinApp@@UAEPAUHINSTANCE__@@XZ 0042a138     mfc90ud:mfc90ud.dll
 0005:0000113c       __imp_?WinHelpInternal@CWinApp@@UAEXKI@Z 0042a13c     mfc90ud:mfc90ud.dll
 0005:00001140       __imp_?HtmlHelpW@CWinApp@@UAEXKI@Z 0042a140     mfc90ud:mfc90ud.dll
 0005:00001144       __imp_?WinHelpW@CWinApp@@UAEXKI@Z 0042a144     mfc90ud:mfc90ud.dll
 0005:00001148       __imp_?OnDDECommand@CWinApp@@UAEHPA_W@Z 0042a148     mfc90ud:mfc90ud.dll
 0005:0000114c       __imp_?DoWaitCursor@CWinApp@@UAEXH@Z 0042a14c     mfc90ud:mfc90ud.dll
 0005:00001150       __imp_?DoMessageBox@CWinApp@@UAEHPB_WII@Z 0042a150     mfc90ud:mfc90ud.dll
 0005:00001154       __imp_?SaveAllModified@CWinApp@@UAEHXZ 0042a154     mfc90ud:mfc90ud.dll
 0005:00001158       __imp_?InitApplication@CWinApp@@UAEHXZ 0042a158     mfc90ud:mfc90ud.dll
 0005:0000115c       __imp_?AddToRecentFileList@CWinApp@@UAEXPB_W@Z 0042a15c     mfc90ud:mfc90ud.dll
 0005:00001160       __imp_?OpenDocumentFile@CWinApp@@UAEPAVCDocument@@PB_W@Z 0042a160     mfc90ud:mfc90ud.dll
 0005:00001164       __imp_?Unregister@CWinApp@@UAEHXZ 0042a164     mfc90ud:mfc90ud.dll
 0005:00001168       __imp_??2@YAPAXI@Z         0042a168     mfc90ud:mfc90ud.dll
 0005:0000116c       __imp_?Register@CWinApp@@UAEHXZ 0042a16c     mfc90ud:mfc90ud.dll
 0005:00001170       __imp_?InitLibId@CWinApp@@UAEXXZ 0042a170     mfc90ud:mfc90ud.dll
 0005:00001174       __imp_?Delete@CWinThread@@UAEXXZ 0042a174     mfc90ud:mfc90ud.dll
 0005:00001178       __imp_?GetMainWnd@CWinThread@@UAEPAVCWnd@@XZ 0042a178     mfc90ud:mfc90ud.dll
 0005:0000117c       __imp_?ProcessMessageFilter@CWinThread@@UAEHHPAUtagMSG@@@Z 0042a17c     mfc90ud:mfc90ud.dll
 0005:00001180       __imp_?ProcessWndProcException@CWinApp@@UAEJPAVCException@@PBUtagMSG@@@Z 0042a180     mfc90ud:mfc90ud.dll
 0005:00001184       __imp_?ExitInstance@CWinApp@@UAEHXZ 0042a184     mfc90ud:mfc90ud.dll
 0005:00001188       __imp_?IsIdleMessage@CWinThread@@UAEHPAUtagMSG@@@Z 0042a188     mfc90ud:mfc90ud.dll
 0005:0000118c       __imp_?OnIdle@CWinApp@@UAEHJ@Z 0042a18c     mfc90ud:mfc90ud.dll
 0005:00001190       __imp_?PumpMessage@CWinThread@@UAEHXZ 0042a190     mfc90ud:mfc90ud.dll
 0005:00001194       __imp_?PreTranslateMessage@CWinThread@@UAEHPAUtagMSG@@@Z 0042a194     mfc90ud:mfc90ud.dll
 0005:00001198       __imp_?Run@CWinApp@@UAEHXZ 0042a198     mfc90ud:mfc90ud.dll
 0005:0000119c       __imp_?GetConnectionHook@CCmdTarget@@MAEPAUIConnectionPoint@@ABU_GUID@@@Z 0042a19c     mfc90ud:mfc90ud.dll
 0005:000011a0       __imp_?GetExtraConnectionPoints@CCmdTarget@@MAEHPAVCPtrArray@@@Z 0042a1a0     mfc90ud:mfc90ud.dll
 0005:000011a4       __imp_?GetInterfaceHook@CCmdTarget@@UAEPAUIUnknown@@PBX@Z 0042a1a4     mfc90ud:mfc90ud.dll
 0005:000011a8       __imp_?OnCreateAggregates@CCmdTarget@@UAEHXZ 0042a1a8     mfc90ud:mfc90ud.dll
 0005:000011ac       __imp_?GetEventSinkMap@CCmdTarget@@MBEPBUAFX_EVENTSINKMAP@@XZ 0042a1ac     mfc90ud:mfc90ud.dll
 0005:000011b0       __imp_?GetInterfaceMap@CCmdTarget@@MBEPBUAFX_INTERFACEMAP@@XZ 0042a1b0     mfc90ud:mfc90ud.dll
 0005:000011b4       __imp_?GetConnectionMap@CCmdTarget@@MBEPBUAFX_CONNECTIONMAP@@XZ 0042a1b4     mfc90ud:mfc90ud.dll
 0005:000011b8       __imp_?GetDispatchMap@CCmdTarget@@MBEPBUAFX_DISPMAP@@XZ 0042a1b8     mfc90ud:mfc90ud.dll
 0005:000011bc       __imp_?GetCommandMap@CCmdTarget@@MBEPBUAFX_OLECMDMAP@@XZ 0042a1bc     mfc90ud:mfc90ud.dll
 0005:000011c0       __imp_?GetTypeLib@CCmdTarget@@UAEJKPAPAUITypeLib@@@Z 0042a1c0     mfc90ud:mfc90ud.dll
 0005:000011c4       __imp_?GetTypeLibCache@CCmdTarget@@UAEPAVCTypeLibCache@@XZ 0042a1c4     mfc90ud:mfc90ud.dll
 0005:000011c8       __imp_?GetTypeInfoCount@CCmdTarget@@UAEIXZ 0042a1c8     mfc90ud:mfc90ud.dll
 0005:000011cc       __imp_?GetDispatchIID@CCmdTarget@@UAEHPAU_GUID@@@Z 0042a1cc     mfc90ud:mfc90ud.dll
 0005:000011d0       __imp_?IsInvokeAllowed@CCmdTarget@@UAEHJ@Z 0042a1d0     mfc90ud:mfc90ud.dll
 0005:000011d4       __imp_?OnFinalRelease@CCmdTarget@@UAEXXZ 0042a1d4     mfc90ud:mfc90ud.dll
 0005:000011d8       __imp_?OnCmdMsg@CCmdTarget@@UAEHIHPAXPAUAFX_CMDHANDLERINFO@@@Z 0042a1d8     mfc90ud:mfc90ud.dll
 0005:000011dc       __imp_?Dump@CWinApp@@UBEXAAVCDumpContext@@@Z 0042a1dc     mfc90ud:mfc90ud.dll
 0005:000011e0       __imp_?AssertValid@CWinApp@@UBEXXZ 0042a1e0     mfc90ud:mfc90ud.dll
 0005:000011e4       __imp_?Serialize@CObject@@UAEXAAVCArchive@@@Z 0042a1e4     mfc90ud:mfc90ud.dll
 0005:000011e8       __imp_?GetRuntimeClass@CWinApp@@UBEPAUCRuntimeClass@@XZ 0042a1e8     mfc90ud:mfc90ud.dll
 0005:000011ec       __imp_??0CWinApp@@QAE@PB_W@Z 0042a1ec     mfc90ud:mfc90ud.dll
 0005:000011f0       __imp_?OnFileNew@CWinApp@@IAEXXZ 0042a1f0     mfc90ud:mfc90ud.dll
 0005:000011f4       __imp_?OnFileOpen@CWinApp@@IAEXXZ 0042a1f4     mfc90ud:mfc90ud.dll
 0005:000011f8       __imp_?OnFilePrintSetup@CWinApp@@IAEXXZ 0042a1f8     mfc90ud:mfc90ud.dll
 0005:000011fc       __imp_?GetSuperWndProcAddr@CWnd@@MAEPAP6GJPAUHWND__@@IIJ@ZXZ 0042a1fc     mfc90ud:mfc90ud.dll
 0005:00001200       __imp_?OnNotify@CWnd@@MAEHIJPAJ@Z 0042a200     mfc90ud:mfc90ud.dll
 0005:00001204       __imp_?OnCommand@CWnd@@MAEHIJ@Z 0042a204     mfc90ud:mfc90ud.dll
 0005:00001208       __imp_?CreateAccessibleProxy@CWnd@@UAEJIJPAJ@Z 0042a208     mfc90ud:mfc90ud.dll
 0005:0000120c       __imp_?SetProxy@CWnd@@UAEJPAUIAccessibleProxy@@@Z 0042a20c     mfc90ud:mfc90ud.dll
 0005:00001210       __imp_?put_accValue@CWnd@@UAEJUtagVARIANT@@PA_W@Z 0042a210     mfc90ud:mfc90ud.dll
 0005:00001214       __imp_?put_accName@CWnd@@UAEJUtagVARIANT@@PA_W@Z 0042a214     mfc90ud:mfc90ud.dll
 0005:00001218       __imp_?accDoDefaultAction@CWnd@@UAEJUtagVARIANT@@@Z 0042a218     mfc90ud:mfc90ud.dll
 0005:0000121c       __imp_?accHitTest@CWnd@@UAEJJJPAUtagVARIANT@@@Z 0042a21c     mfc90ud:mfc90ud.dll
 0005:00001220       __imp_?accNavigate@CWnd@@UAEJJUtagVARIANT@@PAU2@@Z 0042a220     mfc90ud:mfc90ud.dll
 0005:00001224       __imp_?SetMenuBarState@CFrameWnd@@UAEHK@Z 0042a224     mfc90ud:mfc90ud.dll
 0005:00001228       __imp_?accLocation@CWnd@@UAEJPAJ000UtagVARIANT@@@Z 0042a228     mfc90ud:mfc90ud.dll
 0005:0000122c       __imp_?GetThisMessageMap@CWinApp@@KGPBUAFX_MSGMAP@@XZ 0042a22c     mfc90ud:mfc90ud.dll
 0005:00001230       __imp_?GetThisMessageMap@CDialog@@KGPBUAFX_MSGMAP@@XZ 0042a230     mfc90ud:mfc90ud.dll
 0005:00001234       __imp_??3@YAXPAX@Z         0042a234     mfc90ud:mfc90ud.dll
 0005:00001238       __imp_?CheckAutoCenter@CWnd@@UAEHXZ 0042a238     mfc90ud:mfc90ud.dll
 0005:0000123c       __imp_?AfxWinMain@@YGHPAUHINSTANCE__@@0PA_WH@Z 0042a23c     mfc90ud:mfc90ud.dll
 0005:00001240       __imp_?AfxGetModuleState@@YGPAVAFX_MODULE_STATE@@XZ 0042a240     mfc90ud:mfc90ud.dll
 0005:00001244       \177mfc90ud_NULL_THUNK_DATA 0042a244     mfc90ud:mfc90ud.dll

 entry point at        0002:00000dcf

